///////////////////////////////////////////////////////////////////////////////
//                                                                            /
// IAR C/C++ Compiler V8.10.1.10194/W32 for 8051        14/Jul/2015  15:42:54 /
// Copyright 2004-2011 IAR Systems AB.                                        /
//                                                                            /
//    Core               =  plain                                             /
//    Code model         =  banked                                            /
//    Data model         =  large                                             /
//    Calling convention =  xdata reentrant                                   /
//    Constant location  =  data_rom                                          /
//    Dptr setup         =  1,16                                              /
//    Source file        =  E:\SKZH_ZStack_V1.1\Projects\zstack\Utilities\Ser /
//                          ialApp\Hall\Hall.c                                /
//    Command line       =  -f E:\SKZH_ZStack_V1.1\Projects\zstack\Utilities\ /
//                          SerialApp\CC2530DB\..\..\..\Tools\CC2530DB\f8wEnd /
//                          ev.cfg (-DCPU32MHZ -DROOT=__near_func             /
//                          -DMAC_CFG_TX_DATA_MAX=3 -DMAC_CFG_TX_MAX=6        /
//                          -DMAC_CFG_RX_MAX=3) -f E:\SKZH_ZStack_V1.1\Projec /
//                          ts\zstack\Utilities\SerialApp\CC2530DB\..\..\..\T /
//                          ools\CC2530DB\f8wConfig.cfg (-DZIGBEEPRO          /
//                          -DSECURE=0 -DZG_SECURE_DYNAMIC=0 -DREFLECTOR      /
//                          -DDEFAULT_CHANLIST=0x00000800                     /
//                          -DZDAPP_CONFIG_PAN_ID=0xAA41                      /
//                          -DNWK_START_DELAY=100 -DEXTENDED_JOINING_RANDOM_M /
//                          ASK=0x007F -DBEACON_REQUEST_DELAY=100             /
//                          -DBEACON_REQ_DELAY_MASK=0x00FF                    /
//                          -DLINK_STATUS_JITTER_MASK=0x007F                  /
//                          -DROUTE_EXPIRY_TIME=30 -DAPSC_ACK_WAIT_DURATION_P /
//                          OLLED=3000 -DNWK_INDIRECT_MSG_TIMEOUT=7           /
//                          -DMAX_RREQ_ENTRIES=8 -DAPSC_MAX_FRAME_RETRIES=3   /
//                          -DNWK_MAX_DATA_RETRIES=2                          /
//                          -DMAX_POLL_FAILURE_RETRIES=2 -DMAX_BCAST=9        /
//                          -DAPS_MAX_GROUPS=16 -DMAX_RTG_ENTRIES=40          /
//                          -DNWK_MAX_BINDING_ENTRIES=4                       /
//                          -DMAX_BINDING_CLUSTER_IDS=4                       /
//                          "-DDEFAULT_KEY={0x01, 0x03, 0x05, 0x07, 0x09,     /
//                          0x0B, 0x0D, 0x0F, 0x00, 0x02, 0x04, 0x06, 0x08,   /
//                          0x0A, 0x0C, 0x0D}" -DMAC_MAX_FRAME_SIZE=116       /
//                          -DZDNWKMGR_MIN_TRANSMISSIONS=20 "-DCONST=const    /
//                          __code" -DGENERIC=__generic                       /
//                          -DRFD_RCVC_ALWAYS_ON=FALSE -DPOLL_RATE=1000       /
//                          -DQUEUED_POLL_RATE=100 -DRESPONSE_POLL_RATE=100)  /
//                          -DREJOIN_POLL_RATE=440 E:\SKZH_ZStack_V1.1\Projec /
//                          ts\zstack\Utilities\SerialApp\Hall\Hall.c -D      /
//                          NWK_AUTO_POLL -D HAL_UART=TRUE -D                 /
//                          SERIAL_APP_PORT=0 -D POWER_SAVING -D NV_INIT -D   /
//                          NV_RESTORE -D HALL -lC E:\SKZH_ZStack_V1.1\Projec /
//                          ts\zstack\Utilities\SerialApp\CC2530DB\Hall\List\ /
//                           -lA E:\SKZH_ZStack_V1.1\Projects\zstack\Utilitie /
//                          s\SerialApp\CC2530DB\Hall\List\ --diag_suppress   /
//                          Pe001,Pa010 -o E:\SKZH_ZStack_V1.1\Projects\zstac /
//                          k\Utilities\SerialApp\CC2530DB\Hall\Obj\ -e       /
//                          --no_code_motion --debug --core=plain             /
//                          --dptr=16,1 --data_model=large                    /
//                          --code_model=banked --calling_convention=xdata_re /
//                          entrant --place_constants=data_rom                /
//                          --nr_virtual_regs 16 -I                           /
//                          E:\SKZH_ZStack_V1.1\Projects\zstack\Utilities\Ser /
//                          ialApp\CC2530DB\ -I E:\SKZH_ZStack_V1.1\Projects\ /
//                          zstack\Utilities\SerialApp\CC2530DB\..\Hall\ -I   /
//                          E:\SKZH_ZStack_V1.1\Projects\zstack\Utilities\Ser /
//                          ialApp\CC2530DB\..\Public\ -I                     /
//                          E:\SKZH_ZStack_V1.1\Projects\zstack\Utilities\Ser /
//                          ialApp\CC2530DB\..\..\..\ZMain\TI2530DB\ -I       /
//                          E:\SKZH_ZStack_V1.1\Projects\zstack\Utilities\Ser /
//                          ialApp\CC2530DB\..\..\..\..\..\Components\hal\inc /
//                          lude\ -I E:\SKZH_ZStack_V1.1\Projects\zstack\Util /
//                          ities\SerialApp\CC2530DB\..\..\..\..\..\Component /
//                          s\hal\target\CC2530EB\ -I                         /
//                          E:\SKZH_ZStack_V1.1\Projects\zstack\Utilities\Ser /
//                          ialApp\CC2530DB\..\..\..\..\..\Components\mac\inc /
//                          lude\ -I E:\SKZH_ZStack_V1.1\Projects\zstack\Util /
//                          ities\SerialApp\CC2530DB\..\..\..\..\..\Component /
//                          s\mac\high_level\ -I E:\SKZH_ZStack_V1.1\Projects /
//                          \zstack\Utilities\SerialApp\CC2530DB\..\..\..\..\ /
//                          ..\Components\mac\low_level\srf04\ -I             /
//                          E:\SKZH_ZStack_V1.1\Projects\zstack\Utilities\Ser /
//                          ialApp\CC2530DB\..\..\..\..\..\Components\mac\low /
//                          _level\srf04\single_chip\ -I                      /
//                          E:\SKZH_ZStack_V1.1\Projects\zstack\Utilities\Ser /
//                          ialApp\CC2530DB\..\..\..\..\..\Components\mt\ -I  /
//                          E:\SKZH_ZStack_V1.1\Projects\zstack\Utilities\Ser /
//                          ialApp\CC2530DB\..\..\..\..\..\Components\osal\in /
//                          clude\ -I E:\SKZH_ZStack_V1.1\Projects\zstack\Uti /
//                          lities\SerialApp\CC2530DB\..\..\..\..\..\Componen /
//                          ts\services\saddr\ -I E:\SKZH_ZStack_V1.1\Project /
//                          s\zstack\Utilities\SerialApp\CC2530DB\..\..\..\.. /
//                          \..\Components\services\sdata\ -I                 /
//                          E:\SKZH_ZStack_V1.1\Projects\zstack\Utilities\Ser /
//                          ialApp\CC2530DB\..\..\..\..\..\Components\stack\a /
//                          f\ -I E:\SKZH_ZStack_V1.1\Projects\zstack\Utiliti /
//                          es\SerialApp\CC2530DB\..\..\..\..\..\Components\s /
//                          tack\nwk\ -I E:\SKZH_ZStack_V1.1\Projects\zstack\ /
//                          Utilities\SerialApp\CC2530DB\..\..\..\..\..\Compo /
//                          nents\stack\sapi\ -I E:\SKZH_ZStack_V1.1\Projects /
//                          \zstack\Utilities\SerialApp\CC2530DB\..\..\..\..\ /
//                          ..\Components\stack\sec\ -I                       /
//                          E:\SKZH_ZStack_V1.1\Projects\zstack\Utilities\Ser /
//                          ialApp\CC2530DB\..\..\..\..\..\Components\stack\s /
//                          ys\ -I E:\SKZH_ZStack_V1.1\Projects\zstack\Utilit /
//                          ies\SerialApp\CC2530DB\..\..\..\..\..\Components\ /
//                          stack\zdo\ -I E:\SKZH_ZStack_V1.1\Projects\zstack /
//                          \Utilities\SerialApp\CC2530DB\..\..\..\..\..\Comp /
//                          onents\zmac\ -I E:\SKZH_ZStack_V1.1\Projects\zsta /
//                          ck\Utilities\SerialApp\CC2530DB\..\..\..\..\..\Co /
//                          mponents\zmac\f8w\ -Ohz --require_prototypes      /
//    List file          =  E:\SKZH_ZStack_V1.1\Projects\zstack\Utilities\Ser /
//                          ialApp\CC2530DB\Hall\List\Hall.s51                /
//                                                                            /
//                                                                            /
///////////////////////////////////////////////////////////////////////////////

        NAME Hall

        RTMODEL "__SystemLibrary", "CLib"
        RTMODEL "__calling_convention", "xdata_reentrant"
        RTMODEL "__code_model", "banked"
        RTMODEL "__core", "plain"
        RTMODEL "__data_model", "large"
        RTMODEL "__dptr_size", "16"
        RTMODEL "__extended_stack", "disabled"
        RTMODEL "__location_for_constants", "data"
        RTMODEL "__number_of_dptrs", "1"
        RTMODEL "__rt_version", "1"

        RSEG DOVERLAY:DATA:NOROOT(0)
        RSEG IOVERLAY:IDATA:NOROOT(0)
        RSEG ISTACK:IDATA:NOROOT(0)
        RSEG PSTACK:XDATA:NOROOT(0)
        RSEG XSTACK:XDATA:NOROOT(0)

        EXTERN ?ALLOC_XSTACK8
        EXTERN ?BANKED_ENTER_XDATA
        EXTERN ?BANKED_LEAVE_XDATA
        EXTERN ?BDISPATCH
        EXTERN ?DEALLOC_XSTACK8
        EXTERN ?PUSH_XSTACK_I_ONE
        EXTERN ?PUSH_XSTACK_I_TWO
        EXTERN ?V0
        EXTERN ?XSP
        EXTERN ?XSTACK_DISP0_8
        EXTERN __INIT_XDATA_Z

        PUBLIC ??CheckSum?relay
        FUNCTION ??CheckSum?relay,0203H
        FUNCTION ??SerialApp_CallBack?relay,0203H
        PUBLIC ??SerialApp_Init?relay
        FUNCTION ??SerialApp_Init?relay,0203H
        PUBLIC ??SerialApp_OTAData?relay
        FUNCTION ??SerialApp_OTAData?relay,0203H
        PUBLIC ??SerialApp_ProcessEvent?relay
        FUNCTION ??SerialApp_ProcessEvent?relay,0203H
        PUBLIC CheckSum
        FUNCTION CheckSum,0203H
        ARGFRAME XSTACK, 12, STACK
        ARGFRAME IOVERLAY, 0, STATIC
        ARGFRAME DOVERLAY, 0, STATIC
        LOCFRAME XSTACK, 12, STACK
        PUBWEAK P0DIR
        PUBWEAK P0SEL
        PUBLIC SampleApp_NwkState
        FUNCTION SerialApp_CallBack,021603H
        ARGFRAME XSTACK, 0, STACK
        LOCFRAME XSTACK, 9, STACK
        PUBLIC SerialApp_ClusterList
        PUBLIC SerialApp_Init
        FUNCTION SerialApp_Init,021203H
        ARGFRAME XSTACK, 0, STACK
        LOCFRAME XSTACK, 38, STACK
        PUBLIC SerialApp_OTAData
        FUNCTION SerialApp_OTAData,021203H
        ARGFRAME XSTACK, 13, STACK
        ARGFRAME IOVERLAY, 0, STATIC
        ARGFRAME DOVERLAY, 0, STATIC
        LOCFRAME XSTACK, 19, STACK
        PUBLIC SerialApp_ProcessEvent
        FUNCTION SerialApp_ProcessEvent,021203H
        ARGFRAME XSTACK, 0, STACK
        LOCFRAME XSTACK, 13, STACK
        PUBLIC SerialApp_SimpleDesc
        PUBLIC SerialApp_TaskID
        PUBLIC SerialApp_epDesc
        PUBWEAK _A_P0
        
        CFI Names cfiNames0
        CFI StackFrame CFA_SP SP IDATA
        CFI StackFrame CFA_PSP16 PSP16 XDATA
        CFI StackFrame CFA_XSP16 XSP16 XDATA
        CFI StaticOverlayFrame CFA_IOVERLAY IOVERLAY
        CFI StaticOverlayFrame CFA_DOVERLAY DOVERLAY
        CFI Resource `PSW.CY`:1, `B.BR0`:1, `B.BR1`:1, `B.BR2`:1, `B.BR3`:1
        CFI Resource `B.BR4`:1, `B.BR5`:1, `B.BR6`:1, `B.BR7`:1, `VB.BR8`:1
        CFI Resource `VB.BR9`:1, `VB.BR10`:1, `VB.BR11`:1, `VB.BR12`:1
        CFI Resource `VB.BR13`:1, `VB.BR14`:1, `VB.BR15`:1, VB:8, B:8, A:8
        CFI Resource PSW:8, DPL0:8, DPH0:8, R0:8, R1:8, R2:8, R3:8, R4:8, R5:8
        CFI Resource R6:8, R7:8, V0:8, V1:8, V2:8, V3:8, V4:8, V5:8, V6:8, V7:8
        CFI Resource V8:8, V9:8, V10:8, V11:8, V12:8, V13:8, V14:8, V15:8, SP:8
        CFI Resource PSPH:8, PSPL:8, PSP16:16, XSPH:8, XSPL:8, XSP16:16
        CFI VirtualResource ?RET:24
        CFI Resource ?BRET_EXT:8
        CFI VirtualResource ?RET_HIGH:8, ?RET_LOW:8
        CFI ResourceParts PSP16 PSPH, PSPL
        CFI ResourceParts XSP16 XSPH, XSPL
        CFI ResourceParts ?RET ?BRET_EXT, ?RET_HIGH, ?RET_LOW
        CFI EndNames cfiNames0
        
        CFI Common cfiCommon0 Using cfiNames0
        CFI CodeAlign 1
        CFI DataAlign -1
        CFI ReturnAddress ?RET CODE
        CFI CFA_DOVERLAY Used
        CFI CFA_IOVERLAY Used
        CFI CFA_SP SP+-3
        CFI CFA_PSP16 PSP16+0
        CFI CFA_XSP16 XSP16+0
        CFI `PSW.CY` SameValue
        CFI `B.BR0` SameValue
        CFI `B.BR1` SameValue
        CFI `B.BR2` SameValue
        CFI `B.BR3` SameValue
        CFI `B.BR4` SameValue
        CFI `B.BR5` SameValue
        CFI `B.BR6` SameValue
        CFI `B.BR7` SameValue
        CFI `VB.BR8` SameValue
        CFI `VB.BR9` SameValue
        CFI `VB.BR10` SameValue
        CFI `VB.BR11` SameValue
        CFI `VB.BR12` SameValue
        CFI `VB.BR13` SameValue
        CFI `VB.BR14` SameValue
        CFI `VB.BR15` SameValue
        CFI VB SameValue
        CFI B Undefined
        CFI A Undefined
        CFI PSW SameValue
        CFI DPL0 SameValue
        CFI DPH0 SameValue
        CFI R0 Undefined
        CFI R1 Undefined
        CFI R2 Undefined
        CFI R3 Undefined
        CFI R4 Undefined
        CFI R5 Undefined
        CFI R6 SameValue
        CFI R7 SameValue
        CFI V0 SameValue
        CFI V1 SameValue
        CFI V2 SameValue
        CFI V3 SameValue
        CFI V4 SameValue
        CFI V5 SameValue
        CFI V6 SameValue
        CFI V7 SameValue
        CFI V8 SameValue
        CFI V9 SameValue
        CFI V10 SameValue
        CFI V11 SameValue
        CFI V12 SameValue
        CFI V13 SameValue
        CFI V14 SameValue
        CFI V15 SameValue
        CFI PSPH Undefined
        CFI PSPL Undefined
        CFI XSPH Undefined
        CFI XSPL Undefined
        CFI ?RET Concat
        CFI ?BRET_EXT Frame(CFA_SP, 3)
        CFI ?RET_HIGH Frame(CFA_SP, 2)
        CFI ?RET_LOW Frame(CFA_SP, 1)
        CFI EndCommon cfiCommon0
        
        
        CFI Common cfiCommon1 Using cfiNames0
        CFI CodeAlign 1
        CFI DataAlign -1
        CFI ReturnAddress ?RET CODE
        CFI CFA_DOVERLAY Used
        CFI CFA_IOVERLAY Used
        CFI CFA_SP SP+-2
        CFI CFA_PSP16 PSP16+0
        CFI CFA_XSP16 XSP16+0
        CFI `PSW.CY` SameValue
        CFI `B.BR0` SameValue
        CFI `B.BR1` SameValue
        CFI `B.BR2` SameValue
        CFI `B.BR3` SameValue
        CFI `B.BR4` SameValue
        CFI `B.BR5` SameValue
        CFI `B.BR6` SameValue
        CFI `B.BR7` SameValue
        CFI `VB.BR8` SameValue
        CFI `VB.BR9` SameValue
        CFI `VB.BR10` SameValue
        CFI `VB.BR11` SameValue
        CFI `VB.BR12` SameValue
        CFI `VB.BR13` SameValue
        CFI `VB.BR14` SameValue
        CFI `VB.BR15` SameValue
        CFI VB SameValue
        CFI B SameValue
        CFI A SameValue
        CFI PSW SameValue
        CFI DPL0 SameValue
        CFI DPH0 SameValue
        CFI R0 SameValue
        CFI R1 SameValue
        CFI R2 SameValue
        CFI R3 SameValue
        CFI R4 SameValue
        CFI R5 SameValue
        CFI R6 SameValue
        CFI R7 SameValue
        CFI V0 SameValue
        CFI V1 SameValue
        CFI V2 SameValue
        CFI V3 SameValue
        CFI V4 SameValue
        CFI V5 SameValue
        CFI V6 SameValue
        CFI V7 SameValue
        CFI V8 SameValue
        CFI V9 SameValue
        CFI V10 SameValue
        CFI V11 SameValue
        CFI V12 SameValue
        CFI V13 SameValue
        CFI V14 SameValue
        CFI V15 SameValue
        CFI PSPH Undefined
        CFI PSPL Undefined
        CFI XSPH Undefined
        CFI XSPL Undefined
        CFI ?RET Concat
        CFI ?BRET_EXT SameValue
        CFI ?RET_HIGH Frame(CFA_SP, 2)
        CFI ?RET_LOW Frame(CFA_SP, 1)
        CFI EndCommon cfiCommon1
        
afRegister          SYMBOL "afRegister"
RegisterForKeys     SYMBOL "RegisterForKeys"
ledInit             SYMBOL "ledInit"
HalUARTOpen         SYMBOL "HalUARTOpen"
osal_start_timerEx  SYMBOL "osal_start_timerEx"
FLASHLED            SYMBOL "FLASHLED"
LED                 SYMBOL "LED"
osal_set_event      SYMBOL "osal_set_event"
osal_msg_deallocate SYMBOL "osal_msg_deallocate"
osal_msg_receive    SYMBOL "osal_msg_receive"
HalLedBlink         SYMBOL "HalLedBlink"
AF_DataRequest      SYMBOL "AF_DataRequest"
HalUARTRead         SYMBOL "HalUARTRead"
??AF_DataRequest?relay SYMBOL "?relay", AF_DataRequest
??FLASHLED?relay    SYMBOL "?relay", FLASHLED
??HalLedBlink?relay SYMBOL "?relay", HalLedBlink
??HalUARTOpen?relay SYMBOL "?relay", HalUARTOpen
??HalUARTRead?relay SYMBOL "?relay", HalUARTRead
??LED?relay         SYMBOL "?relay", LED
??RegisterForKeys?relay SYMBOL "?relay", RegisterForKeys
??afRegister?relay  SYMBOL "?relay", afRegister
??ledInit?relay     SYMBOL "?relay", ledInit
??osal_msg_deallocate?relay SYMBOL "?relay", osal_msg_deallocate
??osal_msg_receive?relay SYMBOL "?relay", osal_msg_receive
??osal_set_event?relay SYMBOL "?relay", osal_set_event
??osal_start_timerEx?relay SYMBOL "?relay", osal_start_timerEx
CheckSum            SYMBOL "CheckSum"
??CheckSum?relay    SYMBOL "?relay", CheckSum
SerialApp_Init      SYMBOL "SerialApp_Init"
??SerialApp_Init?relay SYMBOL "?relay", SerialApp_Init
SerialApp_OTAData   SYMBOL "SerialApp_OTAData"
??SerialApp_OTAData?relay SYMBOL "?relay", SerialApp_OTAData
SerialApp_ProcessEvent SYMBOL "SerialApp_ProcessEvent"
??SerialApp_ProcessEvent?relay SYMBOL "?relay", SerialApp_ProcessEvent

        EXTERN afRegister
        FUNCTION afRegister,0202H
        ARGFRAME ISTACK, 0, STACK
        ARGFRAME PSTACK, 0, STACK
        ARGFRAME XSTACK, 38, STACK
        ARGFRAME IOVERLAY, 0, STATIC
        ARGFRAME DOVERLAY, 0, STATIC
        EXTERN RegisterForKeys
        FUNCTION RegisterForKeys,0202H
        ARGFRAME ISTACK, 0, STACK
        ARGFRAME PSTACK, 0, STACK
        ARGFRAME XSTACK, 38, STACK
        ARGFRAME IOVERLAY, 0, STATIC
        ARGFRAME DOVERLAY, 0, STATIC
        EXTERN ledInit
        FUNCTION ledInit,0202H
        ARGFRAME ISTACK, 0, STACK
        ARGFRAME PSTACK, 0, STACK
        ARGFRAME XSTACK, 38, STACK
        ARGFRAME IOVERLAY, 0, STATIC
        ARGFRAME DOVERLAY, 0, STATIC
        EXTERN HalUARTOpen
        FUNCTION HalUARTOpen,0202H
        ARGFRAME ISTACK, 0, STACK
        ARGFRAME PSTACK, 0, STACK
        ARGFRAME XSTACK, 38, STACK
        ARGFRAME IOVERLAY, 0, STATIC
        ARGFRAME DOVERLAY, 0, STATIC
        EXTERN osal_start_timerEx
        FUNCTION osal_start_timerEx,0202H
        ARGFRAME ISTACK, 0, STACK
        ARGFRAME PSTACK, 0, STACK
        ARGFRAME XSTACK, 12, STACK
        ARGFRAME IOVERLAY, 0, STATIC
        ARGFRAME DOVERLAY, 0, STATIC
        EXTERN FLASHLED
        FUNCTION FLASHLED,0202H
        ARGFRAME ISTACK, 0, STACK
        ARGFRAME PSTACK, 0, STACK
        ARGFRAME XSTACK, 12, STACK
        ARGFRAME IOVERLAY, 0, STATIC
        ARGFRAME DOVERLAY, 0, STATIC
        EXTERN LED
        FUNCTION LED,0202H
        ARGFRAME ISTACK, 0, STACK
        ARGFRAME PSTACK, 0, STACK
        ARGFRAME XSTACK, 12, STACK
        ARGFRAME IOVERLAY, 0, STATIC
        ARGFRAME DOVERLAY, 0, STATIC
        EXTERN osal_set_event
        FUNCTION osal_set_event,0202H
        ARGFRAME ISTACK, 0, STACK
        ARGFRAME PSTACK, 0, STACK
        ARGFRAME XSTACK, 12, STACK
        ARGFRAME IOVERLAY, 0, STATIC
        ARGFRAME DOVERLAY, 0, STATIC
        EXTERN osal_msg_deallocate
        FUNCTION osal_msg_deallocate,0202H
        ARGFRAME ISTACK, 0, STACK
        ARGFRAME PSTACK, 0, STACK
        ARGFRAME XSTACK, 12, STACK
        ARGFRAME IOVERLAY, 0, STATIC
        ARGFRAME DOVERLAY, 0, STATIC
        EXTERN osal_msg_receive
        FUNCTION osal_msg_receive,0202H
        ARGFRAME ISTACK, 0, STACK
        ARGFRAME PSTACK, 0, STACK
        ARGFRAME XSTACK, 12, STACK
        ARGFRAME IOVERLAY, 0, STATIC
        ARGFRAME DOVERLAY, 0, STATIC
        EXTERN HalLedBlink
        FUNCTION HalLedBlink,0202H
        ARGFRAME ISTACK, 0, STACK
        ARGFRAME PSTACK, 0, STACK
        ARGFRAME XSTACK, 12, STACK
        ARGFRAME IOVERLAY, 0, STATIC
        ARGFRAME DOVERLAY, 0, STATIC
        EXTERN AF_DataRequest
        FUNCTION AF_DataRequest,0202H
        ARGFRAME ISTACK, 0, STACK
        ARGFRAME PSTACK, 0, STACK
        ARGFRAME XSTACK, 19, STACK
        ARGFRAME IOVERLAY, 0, STATIC
        ARGFRAME DOVERLAY, 0, STATIC
        EXTERN HalUARTRead
        FUNCTION HalUARTRead,0202H
        ARGFRAME ISTACK, 0, STACK
        ARGFRAME PSTACK, 0, STACK
        ARGFRAME XSTACK, 9, STACK
        ARGFRAME IOVERLAY, 0, STATIC
        ARGFRAME DOVERLAY, 0, STATIC
        EXTERN ??AF_DataRequest?relay
        FUNCTION ??AF_DataRequest?relay,00H
        EXTERN ??FLASHLED?relay
        FUNCTION ??FLASHLED?relay,00H
        EXTERN ??HalLedBlink?relay
        FUNCTION ??HalLedBlink?relay,00H
        EXTERN ??HalUARTOpen?relay
        FUNCTION ??HalUARTOpen?relay,00H
        EXTERN ??HalUARTRead?relay
        FUNCTION ??HalUARTRead?relay,00H
        EXTERN ??LED?relay
        FUNCTION ??LED?relay,00H
        EXTERN ??RegisterForKeys?relay
        FUNCTION ??RegisterForKeys?relay,00H
        EXTERN ??afRegister?relay
        FUNCTION ??afRegister?relay,00H
        EXTERN ??ledInit?relay
        FUNCTION ??ledInit?relay,00H
        EXTERN ??osal_msg_deallocate?relay
        FUNCTION ??osal_msg_deallocate?relay,00H
        EXTERN ??osal_msg_receive?relay
        FUNCTION ??osal_msg_receive?relay,00H
        EXTERN ??osal_set_event?relay
        FUNCTION ??osal_set_event?relay,00H
        EXTERN ??osal_start_timerEx?relay
        FUNCTION ??osal_start_timerEx?relay,00H

// E:\SKZH_ZStack_V1.1\Projects\zstack\Utilities\SerialApp\Hall\Hall.c
//    1 /**************************************Copyright(c)****************************************
//    2 * 　　　　　　　　            青岛山科智汇信息科技有限公司 　　　　　 　　                *
//    3 * 　　　　　　　　　　　　　                          　　　　　　　　　　　　　　　　　　*
//    4 * 　　　　　　　　　                  www.iotsk.com 　　　　　　　　　                  　*
//    5 * 　　　　　　　　　　　　　　　　　　　　　　　　　　　                          　　　　*
//    6 *----------------------------------------File Info----------------------------------------*
//    7 *文 件 名 ：Hall.c　　　　　　                                                            *
//    8 *修改日期 ：2013.11.21 　　　　　　　　　　　　　　                                       *
//    9 *版 本 号 ：V1.0　　　　　　　　　　　　　　　　　                                        *
//   10 *描    述 ：霍尔传感器模块的终端节点程序                                                  *
//   11 *                                                                                         *
//   12 ******************************************************************************************/
//   13 /******************************************************************************************
//   14 *                                       INCLUDES                                          *
//   15 ******************************************************************************************/
//   16 
//   17 #include "AF.h"
//   18 #include "OnBoard.h"

        ASEGN SFR_AN:DATA:NOROOT,080H
// union <unnamed> volatile __sfr _A_P0
_A_P0:
        DATA8
        DS 1

        ASEGN SFR_AN:DATA:NOROOT,0f3H
// unsigned char volatile __sfr P0SEL
P0SEL:
        DATA8
        DS 1

        ASEGN SFR_AN:DATA:NOROOT,0fdH
// unsigned char volatile __sfr P0DIR
P0DIR:
        DATA8
        DS 1
//   19 #include "OSAL_Tasks.h"
//   20 #include "ZDApp.h"
//   21 #include "ZDObject.h"
//   22 #include "ZDProfile.h"
//   23 
//   24 #include "hal_drivers.h"
//   25 #include "hal_key.h"
//   26 #if defined ( LCD_SUPPORTED )
//   27   #include "hal_lcd.h"
//   28 #endif
//   29 #include "hal_led.h"
//   30 #include "hal_uart.h"
//   31 #include "Public.h"
//   32 #include "Hall.h"
//   33 
//   34 /******************************************************************************************
//   35  *                                       MACROS
//   36  ******************************************************************************************/
//   37 
//   38 /******************************************************************************************
//   39  *                                     CONSTANTS
//   40  ******************************************************************************************/
//   41 
//   42 #if !defined( SERIAL_APP_PORT )
//   43 #define SERIAL_APP_PORT  0
//   44 #endif
//   45 
//   46 #if !defined( SERIAL_APP_BAUD )
//   47 #define SERIAL_APP_BAUD  HAL_UART_BR_115200
//   48 #endif
//   49 
//   50 // When the Rx buf space is less than this threshold, invoke the Rx callback.
//   51 #if !defined( SERIAL_APP_THRESH )
//   52 #define SERIAL_APP_THRESH  64
//   53 #endif
//   54 
//   55 #if !defined( SERIAL_APP_RX_SZ )
//   56 #define SERIAL_APP_RX_SZ  128
//   57 #endif
//   58 
//   59 #if !defined( SERIAL_APP_TX_SZ )
//   60 #define SERIAL_APP_TX_SZ  128
//   61 #endif
//   62 
//   63 // Millisecs of idle time after a byte is received before invoking Rx callback.
//   64 #if !defined( SERIAL_APP_IDLE )
//   65 #define SERIAL_APP_IDLE  6
//   66 #endif
//   67 
//   68 // Loopback Rx bytes to Tx for throughput testing.
//   69 #if !defined( SERIAL_APP_LOOPBACK )
//   70 #define SERIAL_APP_LOOPBACK  FALSE
//   71 #endif
//   72 
//   73 // This is the max byte count per OTA message.
//   74 #if !defined( SERIAL_APP_TX_MAX )
//   75 #define SERIAL_APP_TX_MAX  20
//   76 #endif
//   77 
//   78 #define SERIAL_APP_RSP_CNT  4
//   79 
//   80 #define ON  1
//   81 #define OFF 0
//   82 
//   83 
//   84 // This list should be filled with Application specific Cluster IDs.

        RSEG XDATA_ROM_C:CONST:REORDER:NOROOT(0)
        DATA32
//   85 const cId_t SerialApp_ClusterList[SERIALAPP_MAX_CLUSTERS] =
SerialApp_ClusterList:
        DATA16
        DW 1
        DW 2
//   86 {
//   87   SERIALAPP_CLUSTERID1,
//   88   SERIALAPP_CLUSTERID2
//   89 };
//   90 

        RSEG XDATA_ROM_C:CONST:REORDER:NOROOT(0)
        DATA8
//   91 const SimpleDescriptionFormat_t SerialApp_SimpleDesc =
SerialApp_SimpleDesc:
        DB 11
        DATA16
        DW 3845
        DW 1
        DATA8
        DB 0
        DB 2
        DATA16
        DW SerialApp_ClusterList
        DATA8
        DB 2
        DATA16
        DW SerialApp_ClusterList
//   92 {
//   93   SERIALAPP_ENDPOINT,              //  int   Endpoint;
//   94   SERIALAPP_PROFID,                //  uint16 AppProfId[2];
//   95   SERIALAPP_DEVICEID,              //  uint16 AppDeviceId[2];
//   96   SERIALAPP_DEVICE_VERSION,        //  int   AppDevVer:4;
//   97   SERIALAPP_FLAGS,                 //  int   AppFlags:4;
//   98   SERIALAPP_MAX_CLUSTERS,          //  byte  AppNumInClusters;
//   99   (cId_t *)SerialApp_ClusterList,  //  byte *pAppInClusterList;
//  100   SERIALAPP_MAX_CLUSTERS,          //  byte  AppNumOutClusters;
//  101   (cId_t *)SerialApp_ClusterList   //  byte *pAppOutClusterList;
//  102 };
//  103 

        RSEG XDATA_ROM_C:CONST:REORDER:NOROOT(0)
        DATA8
//  104 const endPointDesc_t SerialApp_epDesc =
SerialApp_epDesc:
        DB 11
        DATA16
        DW SerialApp_TaskID
        DW SerialApp_SimpleDesc
        DATA8
        DB 0
//  105 {
//  106   SERIALAPP_ENDPOINT,
//  107  &SerialApp_TaskID,
//  108   (SimpleDescriptionFormat_t *)&SerialApp_SimpleDesc,
//  109   noLatencyReqs
//  110 };
//  111 
//  112 /******************************************************************************************
//  113  *                                       TYPEDEFS
//  114  ******************************************************************************************/
//  115 
//  116 /******************************************************************************************
//  117  *                                   GLOBAL VARIABLES
//  118  ******************************************************************************************/
//  119 

        RSEG XDATA_Z:XDATA:NOROOT(0)
        DATA8
//  120 uint8 SerialApp_TaskID;    // Task ID for internal task/event processing.
SerialApp_TaskID:
        DS 1
        REQUIRE __INIT_XDATA_Z

        RSEG XDATA_Z:XDATA:NOROOT(0)
        DATA8
//  121 devStates_t  SampleApp_NwkState;
SampleApp_NwkState:
        DS 1
        REQUIRE __INIT_XDATA_Z

        RSEG XDATA_Z:XDATA:NOROOT(0)
        DATA8
//  122 static UART_Format UART0_Format;
UART0_Format:
        DS 16
        REQUIRE __INIT_XDATA_Z

        RSEG XDATA_Z:XDATA:NOROOT(0)
        DATA8
//  123 static UART_Format_End1 UART0_Format1;
UART0_Format1:
        DS 7
        REQUIRE __INIT_XDATA_Z
//  124 /******************************************************************************************
//  125  *                                  EXTERNAL VARIABLES
//  126  *******************************************************************************************/
//  127 
//  128 /*******************************************************************************************
//  129  *                                  EXTERNAL FUNCTIONS
//  130  ********************************************************************************************/
//  131 
//  132 /*******************************************************************************************
//  133  *                                   LOCAL VARIABLES
//  134  ********************************************************************************************/
//  135 

        RSEG XDATA_Z:XDATA:NOROOT(0)
        DATA8
//  136 static uint8 SerialApp_MsgID;
SerialApp_MsgID:
        DS 1
        REQUIRE __INIT_XDATA_Z

        RSEG XDATA_Z:XDATA:NOROOT(0)
        DATA8
//  137 static afAddrType_t SerialApp_TxAddr;
SerialApp_TxAddr:
        DS 12
        REQUIRE __INIT_XDATA_Z

        RSEG XDATA_Z:XDATA:NOROOT(0)
        DATA8
//  138 static uint8 SerialApp_TxBuf[SERIAL_APP_TX_MAX];
SerialApp_TxBuf:
        DS 20
        REQUIRE __INIT_XDATA_Z

        RSEG XDATA_Z:XDATA:NOROOT(0)
        DATA8
//  139 static uint8 SerialApp_TxLen;
SerialApp_TxLen:
        DS 1
        REQUIRE __INIT_XDATA_Z

        RSEG XDATA_Z:XDATA:NOROOT(0)
        DATA8
//  140 static uint8 HallStatusOld;
HallStatusOld:
        DS 1
        REQUIRE __INIT_XDATA_Z

        RSEG XDATA_Z:XDATA:NOROOT(0)
        DATA8
//  141 static uint8 HallStatusNow;
HallStatusNow:
        DS 1
        REQUIRE __INIT_XDATA_Z
//  142 /*******************************************************************************************
//  143  *                                   LOCAL FUNCTIONS
//  144  *******************************************************************************************/
//  145 
//  146 static void SerialApp_ProcessMSGCmd( afIncomingMSGPacket_t *pkt );
//  147 void SerialApp_OTAData(afAddrType_t *txaddr,uint8 ID,void *p,uint8 len);
//  148 static void SerialApp_CallBack(uint8 port, uint8 event);
//  149 extern uint8 CheckSum(uint8 *data,uint8 len);
//  150 extern void FLASHLED(uint8 led);
//  151 extern void LED(uint8 led,uint8 operation);
//  152 extern void ledInit(void);
//  153 static void PhotoInit(void);
//  154 
//  155 /*****************************************************************************************
//  156 *函数名称 ：霍尔传感器端口初始化函数				                                 
//  157 *入口参数 ：无                                
//  158 *返 回 值 ：无                                                                                
//  159 *说    明 ：把P01设置为通用IO,输入模式                                                            
//  160 *****************************************************************************************/
//  161 
//  162 static void PhotoInit(void) //P00  AD   P01   开关
//  163 {
//  164   P0SEL &= ~0x01;  //P01设置为通用IO
//  165   P0DIR &= ~0x01;  //将P01设置为输入模式 
//  166   if(HALL_GPIO == HIGH)
//  167     HallStatusNow = HALL_NO;
//  168   else
//  169     HallStatusNow = HALL_YES;
//  170 }
//  171 /*****************************************************************************************
//  172 *函数名称 ：串口初始化函数					                          
//  173 *入口参数 ：task_id - OSAL分配的任务ID号		                          
//  174 *返 回 值 ：无							                          
//  175 *说    明 ：在OSAL初始化的时候被调用                             
//  176 *****************************************************************************************/
//  177 

        RSEG BANKED_CODE:CODE:NOROOT(0)
//  178 void SerialApp_Init( uint8 task_id )
SerialApp_Init:
        CFI Block cfiBlock0 Using cfiCommon0
        CFI Function SerialApp_Init
        CODE
//  179 { 
        FUNCALL SerialApp_Init, afRegister
        LOCFRAME ISTACK, 0, STACK
        LOCFRAME PSTACK, 0, STACK
        LOCFRAME XSTACK, 38, STACK
        LOCFRAME IOVERLAY, 0, STATIC
        LOCFRAME DOVERLAY, 0, STATIC
        ARGFRAME ISTACK, 0, STACK
        ARGFRAME PSTACK, 0, STACK
        ARGFRAME XSTACK, 38, STACK
        ARGFRAME IOVERLAY, 0, STATIC
        ARGFRAME DOVERLAY, 0, STATIC
        FUNCALL SerialApp_Init, RegisterForKeys
        LOCFRAME ISTACK, 0, STACK
        LOCFRAME PSTACK, 0, STACK
        LOCFRAME XSTACK, 38, STACK
        LOCFRAME IOVERLAY, 0, STATIC
        LOCFRAME DOVERLAY, 0, STATIC
        ARGFRAME ISTACK, 0, STACK
        ARGFRAME PSTACK, 0, STACK
        ARGFRAME XSTACK, 38, STACK
        ARGFRAME IOVERLAY, 0, STATIC
        ARGFRAME DOVERLAY, 0, STATIC
        FUNCALL SerialApp_Init, ledInit
        LOCFRAME ISTACK, 0, STACK
        LOCFRAME PSTACK, 0, STACK
        LOCFRAME XSTACK, 38, STACK
        LOCFRAME IOVERLAY, 0, STATIC
        LOCFRAME DOVERLAY, 0, STATIC
        ARGFRAME ISTACK, 0, STACK
        ARGFRAME PSTACK, 0, STACK
        ARGFRAME XSTACK, 38, STACK
        ARGFRAME IOVERLAY, 0, STATIC
        ARGFRAME DOVERLAY, 0, STATIC
        FUNCALL SerialApp_Init, HalUARTOpen
        LOCFRAME ISTACK, 0, STACK
        LOCFRAME PSTACK, 0, STACK
        LOCFRAME XSTACK, 38, STACK
        LOCFRAME IOVERLAY, 0, STATIC
        LOCFRAME DOVERLAY, 0, STATIC
        ARGFRAME ISTACK, 0, STACK
        ARGFRAME PSTACK, 0, STACK
        ARGFRAME XSTACK, 38, STACK
        ARGFRAME IOVERLAY, 0, STATIC
        ARGFRAME DOVERLAY, 0, STATIC
        MOV     A,#-0x9
        LCALL   ?BANKED_ENTER_XDATA
        CFI DPH0 load(1, XDATA, add(CFA_XSP16, literal(-1)))
        CFI DPL0 load(1, XDATA, add(CFA_XSP16, literal(-2)))
        CFI ?BRET_EXT load(1, XDATA, add(CFA_XSP16, literal(-3)))
        CFI ?RET_HIGH load(1, XDATA, add(CFA_XSP16, literal(-4)))
        CFI ?RET_LOW load(1, XDATA, add(CFA_XSP16, literal(-5)))
        CFI R7 load(1, XDATA, add(CFA_XSP16, literal(-6)))
        CFI V0 load(1, XDATA, add(CFA_XSP16, literal(-7)))
        CFI VB load(1, XDATA, add(CFA_XSP16, literal(-8)))
        CFI R6 load(1, XDATA, add(CFA_XSP16, literal(-9)))
        CFI CFA_SP SP+0
        CFI CFA_XSP16 add(XSP16, 9)
        ; Saved register size: 9
        ; Auto size: 29
        MOV     A,#-0x1d
        LCALL   ?ALLOC_XSTACK8
        CFI CFA_XSP16 add(XSP16, 38)
        MOV     A,R1
        MOV     R6,A
//  180   
//  181   halUARTCfg_t uartConfig;
//  182 
//  183   SerialApp_TaskID = task_id;
        MOV     DPTR,#SerialApp_TaskID
        MOVX    @DPTR,A
//  184 
//  185   afRegister( (endPointDesc_t *)&SerialApp_epDesc );
        ; Setup parameters for call to function afRegister
        MOV     R2,#SerialApp_epDesc & 0xff
        MOV     R3,#(SerialApp_epDesc >> 8) & 0xff
        LCALL   ??afRegister?relay
//  186 
//  187   RegisterForKeys( task_id );
        ; Setup parameters for call to function RegisterForKeys
        MOV     A,R6
        MOV     R1,A
        LCALL   ??RegisterForKeys?relay
//  188   PhotoInit();
        ANL     0xf3,#0xfe
        ANL     0xfd,#0xfe
        MOV     C,0x80.0
        CPL     C
        CLR     A
        RLC     A
        MOV     DPTR,#HallStatusNow
        MOVX    @DPTR,A
//  189   ledInit();
        ; Setup parameters for call to function ledInit
        LCALL   ??ledInit?relay
//  190   uartConfig.configured           = TRUE;              // 2x30 don't care - see uart driver.
        MOV     DPL,?XSP + 0
        MOV     DPH,?XSP + 1
        MOV     A,#0x1
        MOVX    @DPTR,A
//  191   uartConfig.baudRate             = SERIAL_APP_BAUD;
        LCALL   ?XSTACK_DISP0_8
        MOV     A,#0x4
        MOVX    @DPTR,A
//  192   uartConfig.flowControl          = FALSE;
        MOV     A,#0x2
        LCALL   ?XSTACK_DISP0_8
        CLR     A
        MOVX    @DPTR,A
//  193   uartConfig.flowControlThreshold = SERIAL_APP_THRESH; // 2x30 don't care - see uart driver.
        MOV     A,#0x3
        LCALL   ?XSTACK_DISP0_8
        MOV     A,#0x40
        MOVX    @DPTR,A
        INC     DPTR
        CLR     A
        MOVX    @DPTR,A
//  194   uartConfig.rx.maxBufSize        = SERIAL_APP_RX_SZ;  // 2x30 don't care - see uart driver.
        MOV     A,#0xa
        LCALL   ?XSTACK_DISP0_8
        MOV     A,#-0x80
        MOVX    @DPTR,A
        INC     DPTR
        CLR     A
        MOVX    @DPTR,A
//  195   uartConfig.tx.maxBufSize        = SERIAL_APP_TX_SZ;  // 2x30 don't care - see uart driver.
        MOV     A,#0x12
        LCALL   ?XSTACK_DISP0_8
        MOV     A,#-0x80
        MOVX    @DPTR,A
        INC     DPTR
        CLR     A
        MOVX    @DPTR,A
//  196   uartConfig.idleTimeout          = SERIAL_APP_IDLE;   // 2x30 don't care - see uart driver.
        MOV     A,#0x5
        LCALL   ?XSTACK_DISP0_8
        MOV     A,#0x6
        MOVX    @DPTR,A
//  197   uartConfig.intEnable            = TRUE;              // 2x30 don't care - see uart driver.
        MOV     A,#0x16
        LCALL   ?XSTACK_DISP0_8
        MOV     A,#0x1
        MOVX    @DPTR,A
//  198   uartConfig.callBackFunc         = SerialApp_CallBack;
        MOV     A,#0x1b
        LCALL   ?XSTACK_DISP0_8
        MOV     A,#??SerialApp_CallBack?relay & 0xff
        MOVX    @DPTR,A
        INC     DPTR
        MOV     A,#(??SerialApp_CallBack?relay >> 8) & 0xff
        MOVX    @DPTR,A
//  199   HalUARTOpen (SERIAL_APP_PORT, &uartConfig);
        ; Setup parameters for call to function HalUARTOpen
        MOV     DPL,?XSP + 0
        MOV     DPH,?XSP + 1
        MOV     R2,DPL
        MOV     R3,DPH
        MOV     R1,#0x0
        LCALL   ??HalUARTOpen?relay
//  200   
//  201   //霍尔传感器心跳包初始化
//  202   
//  203   UART0_Format.Header   = '@';
        MOV     DPTR,#UART0_Format
        MOV     A,#0x40
        MOVX    @DPTR,A
//  204   UART0_Format.Len      = 0x10;
        INC     DPTR
        MOV     A,#0x10
        MOVX    @DPTR,A
//  205   UART0_Format.NodeSeq  = 0x01;
        INC     DPTR
        MOV     A,#0x1
        MOVX    @DPTR,A
//  206   UART0_Format.NodeID   = Hall;
        INC     DPTR
        MOVX    @DPTR,A
//  207  
//  208   //霍尔传感器无线消息初始化
//  209   
//  210   UART0_Format1.Header   = '@';
        MOV     DPTR,#UART0_Format1
        MOV     A,#0x40
        MOVX    @DPTR,A
//  211   UART0_Format1.Len      = 0x07;
        INC     DPTR
        MOV     A,#0x7
        MOVX    @DPTR,A
//  212   UART0_Format1.NodeSeq  = 0x01;
        INC     DPTR
        MOV     A,#0x1
        MOVX    @DPTR,A
//  213   UART0_Format1.NodeID   = Hall;
        INC     DPTR
        MOVX    @DPTR,A
//  214     
//  215   SerialApp_TxAddr.addrMode =(afAddrMode_t)Addr16Bit;//发送地址初始化
        MOV     DPTR,#SerialApp_TxAddr + 8
        INC     A
        MOVX    @DPTR,A
//  216   SerialApp_TxAddr.endPoint = SERIALAPP_ENDPOINT;
        INC     DPTR
        MOV     A,#0xb
        MOVX    @DPTR,A
//  217   SerialApp_TxAddr.addr.shortAddr = 0x0000;
        MOV     DPTR,#SerialApp_TxAddr
        CLR     A
        MOVX    @DPTR,A
        INC     DPTR
        MOVX    @DPTR,A
//  218   TXPOWER = 0xf5;
        MOV     DPTR,#0x6190
        MOV     A,#-0xb
        MOVX    @DPTR,A
//  219 }
        MOV     A,#0x1d
        LCALL   ?DEALLOC_XSTACK8
        CFI EndBlock cfiBlock0
        REQUIRE ?Subroutine0
        REQUIRE P0SEL
        REQUIRE P0DIR
        REQUIRE _A_P0
        ; // Fall through to label ?Subroutine0

        RSEG BANKED_CODE:CODE:NOROOT(0)
?Subroutine0:
        CFI Block cfiBlock1 Using cfiCommon0
        CFI NoFunction
        CFI CFA_SP SP+0
        CFI CFA_XSP16 add(XSP16, 9)
        CFI VB load(1, XDATA, add(CFA_XSP16, literal(-8)))
        CFI DPL0 load(1, XDATA, add(CFA_XSP16, literal(-2)))
        CFI DPH0 load(1, XDATA, add(CFA_XSP16, literal(-1)))
        CFI R6 load(1, XDATA, add(CFA_XSP16, literal(-9)))
        CFI R7 load(1, XDATA, add(CFA_XSP16, literal(-6)))
        CFI V0 load(1, XDATA, add(CFA_XSP16, literal(-7)))
        CFI ?BRET_EXT load(1, XDATA, add(CFA_XSP16, literal(-3)))
        CFI ?RET_HIGH load(1, XDATA, add(CFA_XSP16, literal(-4)))
        CFI ?RET_LOW load(1, XDATA, add(CFA_XSP16, literal(-5)))
        MOV     R7,#0x1
        LJMP    ?BANKED_LEAVE_XDATA
        CFI EndBlock cfiBlock1
//  220 
//  221 /*****************************************************************************************
//  222 *函数名称 ：用户任务事件处理函数				                          
//  223 *入口参数 ：task_id - OSAL分配的事件ID号                                      
//  224 *           events  - 事件                                      
//  225 *返 回 值 ：事件标志		                          
//  226 *说    明 ：                                                                              
//  227 *****************************************************************************************/
//  228 

        RSEG BANKED_CODE:CODE:NOROOT(0)
//  229 UINT16 SerialApp_ProcessEvent( uint8 task_id, UINT16 events )
SerialApp_ProcessEvent:
        CFI Block cfiBlock2 Using cfiCommon0
        CFI Function SerialApp_ProcessEvent
        CODE
//  230 { 
        FUNCALL SerialApp_ProcessEvent, CheckSum
        LOCFRAME ISTACK, 0, STACK
        LOCFRAME PSTACK, 0, STACK
        LOCFRAME XSTACK, 12, STACK
        LOCFRAME IOVERLAY, 0, STATIC
        LOCFRAME DOVERLAY, 0, STATIC
        ARGFRAME ISTACK, 0, STACK
        ARGFRAME PSTACK, 0, STACK
        ARGFRAME XSTACK, 12, STACK
        ARGFRAME IOVERLAY, 0, STATIC
        ARGFRAME DOVERLAY, 0, STATIC
        FUNCALL SerialApp_ProcessEvent, SerialApp_OTAData
        LOCFRAME ISTACK, 0, STACK
        LOCFRAME PSTACK, 0, STACK
        LOCFRAME XSTACK, 13, STACK
        LOCFRAME IOVERLAY, 0, STATIC
        LOCFRAME DOVERLAY, 0, STATIC
        ARGFRAME ISTACK, 0, STACK
        ARGFRAME PSTACK, 0, STACK
        ARGFRAME XSTACK, 13, STACK
        ARGFRAME IOVERLAY, 0, STATIC
        ARGFRAME DOVERLAY, 0, STATIC
        FUNCALL SerialApp_ProcessEvent, osal_start_timerEx
        LOCFRAME ISTACK, 0, STACK
        LOCFRAME PSTACK, 0, STACK
        LOCFRAME XSTACK, 12, STACK
        LOCFRAME IOVERLAY, 0, STATIC
        LOCFRAME DOVERLAY, 0, STATIC
        ARGFRAME ISTACK, 0, STACK
        ARGFRAME PSTACK, 0, STACK
        ARGFRAME XSTACK, 12, STACK
        ARGFRAME IOVERLAY, 0, STATIC
        ARGFRAME DOVERLAY, 0, STATIC
        FUNCALL SerialApp_ProcessEvent, FLASHLED
        LOCFRAME ISTACK, 0, STACK
        LOCFRAME PSTACK, 0, STACK
        LOCFRAME XSTACK, 12, STACK
        LOCFRAME IOVERLAY, 0, STATIC
        LOCFRAME DOVERLAY, 0, STATIC
        ARGFRAME ISTACK, 0, STACK
        ARGFRAME PSTACK, 0, STACK
        ARGFRAME XSTACK, 12, STACK
        ARGFRAME IOVERLAY, 0, STATIC
        ARGFRAME DOVERLAY, 0, STATIC
        FUNCALL SerialApp_ProcessEvent, LED
        LOCFRAME ISTACK, 0, STACK
        LOCFRAME PSTACK, 0, STACK
        LOCFRAME XSTACK, 12, STACK
        LOCFRAME IOVERLAY, 0, STATIC
        LOCFRAME DOVERLAY, 0, STATIC
        ARGFRAME ISTACK, 0, STACK
        ARGFRAME PSTACK, 0, STACK
        ARGFRAME XSTACK, 12, STACK
        ARGFRAME IOVERLAY, 0, STATIC
        ARGFRAME DOVERLAY, 0, STATIC
        FUNCALL SerialApp_ProcessEvent, osal_set_event
        LOCFRAME ISTACK, 0, STACK
        LOCFRAME PSTACK, 0, STACK
        LOCFRAME XSTACK, 12, STACK
        LOCFRAME IOVERLAY, 0, STATIC
        LOCFRAME DOVERLAY, 0, STATIC
        ARGFRAME ISTACK, 0, STACK
        ARGFRAME PSTACK, 0, STACK
        ARGFRAME XSTACK, 12, STACK
        ARGFRAME IOVERLAY, 0, STATIC
        ARGFRAME DOVERLAY, 0, STATIC
        FUNCALL SerialApp_ProcessEvent, osal_set_event
        LOCFRAME ISTACK, 0, STACK
        LOCFRAME PSTACK, 0, STACK
        LOCFRAME XSTACK, 12, STACK
        LOCFRAME IOVERLAY, 0, STATIC
        LOCFRAME DOVERLAY, 0, STATIC
        ARGFRAME ISTACK, 0, STACK
        ARGFRAME PSTACK, 0, STACK
        ARGFRAME XSTACK, 12, STACK
        ARGFRAME IOVERLAY, 0, STATIC
        ARGFRAME DOVERLAY, 0, STATIC
        FUNCALL SerialApp_ProcessEvent, osal_msg_deallocate
        LOCFRAME ISTACK, 0, STACK
        LOCFRAME PSTACK, 0, STACK
        LOCFRAME XSTACK, 12, STACK
        LOCFRAME IOVERLAY, 0, STATIC
        LOCFRAME DOVERLAY, 0, STATIC
        ARGFRAME ISTACK, 0, STACK
        ARGFRAME PSTACK, 0, STACK
        ARGFRAME XSTACK, 12, STACK
        ARGFRAME IOVERLAY, 0, STATIC
        ARGFRAME DOVERLAY, 0, STATIC
        FUNCALL SerialApp_ProcessEvent, osal_msg_receive
        LOCFRAME ISTACK, 0, STACK
        LOCFRAME PSTACK, 0, STACK
        LOCFRAME XSTACK, 12, STACK
        LOCFRAME IOVERLAY, 0, STATIC
        LOCFRAME DOVERLAY, 0, STATIC
        ARGFRAME ISTACK, 0, STACK
        ARGFRAME PSTACK, 0, STACK
        ARGFRAME XSTACK, 12, STACK
        ARGFRAME IOVERLAY, 0, STATIC
        ARGFRAME DOVERLAY, 0, STATIC
        FUNCALL SerialApp_ProcessEvent, HalLedBlink
        LOCFRAME ISTACK, 0, STACK
        LOCFRAME PSTACK, 0, STACK
        LOCFRAME XSTACK, 12, STACK
        LOCFRAME IOVERLAY, 0, STATIC
        LOCFRAME DOVERLAY, 0, STATIC
        ARGFRAME ISTACK, 0, STACK
        ARGFRAME PSTACK, 0, STACK
        ARGFRAME XSTACK, 12, STACK
        ARGFRAME IOVERLAY, 0, STATIC
        ARGFRAME DOVERLAY, 0, STATIC
        FUNCALL SerialApp_ProcessEvent, CheckSum
        LOCFRAME ISTACK, 0, STACK
        LOCFRAME PSTACK, 0, STACK
        LOCFRAME XSTACK, 12, STACK
        LOCFRAME IOVERLAY, 0, STATIC
        LOCFRAME DOVERLAY, 0, STATIC
        ARGFRAME ISTACK, 0, STACK
        ARGFRAME PSTACK, 0, STACK
        ARGFRAME XSTACK, 12, STACK
        ARGFRAME IOVERLAY, 0, STATIC
        ARGFRAME DOVERLAY, 0, STATIC
        FUNCALL SerialApp_ProcessEvent, CheckSum
        LOCFRAME ISTACK, 0, STACK
        LOCFRAME PSTACK, 0, STACK
        LOCFRAME XSTACK, 12, STACK
        LOCFRAME IOVERLAY, 0, STATIC
        LOCFRAME DOVERLAY, 0, STATIC
        ARGFRAME ISTACK, 0, STACK
        ARGFRAME PSTACK, 0, STACK
        ARGFRAME XSTACK, 12, STACK
        ARGFRAME IOVERLAY, 0, STATIC
        ARGFRAME DOVERLAY, 0, STATIC
        FUNCALL SerialApp_ProcessEvent, SerialApp_OTAData
        LOCFRAME ISTACK, 0, STACK
        LOCFRAME PSTACK, 0, STACK
        LOCFRAME XSTACK, 13, STACK
        LOCFRAME IOVERLAY, 0, STATIC
        LOCFRAME DOVERLAY, 0, STATIC
        ARGFRAME ISTACK, 0, STACK
        ARGFRAME PSTACK, 0, STACK
        ARGFRAME XSTACK, 13, STACK
        ARGFRAME IOVERLAY, 0, STATIC
        ARGFRAME DOVERLAY, 0, STATIC
        FUNCALL SerialApp_ProcessEvent, FLASHLED
        LOCFRAME ISTACK, 0, STACK
        LOCFRAME PSTACK, 0, STACK
        LOCFRAME XSTACK, 12, STACK
        LOCFRAME IOVERLAY, 0, STATIC
        LOCFRAME DOVERLAY, 0, STATIC
        ARGFRAME ISTACK, 0, STACK
        ARGFRAME PSTACK, 0, STACK
        ARGFRAME XSTACK, 12, STACK
        ARGFRAME IOVERLAY, 0, STATIC
        ARGFRAME DOVERLAY, 0, STATIC
        FUNCALL SerialApp_ProcessEvent, osal_set_event
        LOCFRAME ISTACK, 0, STACK
        LOCFRAME PSTACK, 0, STACK
        LOCFRAME XSTACK, 12, STACK
        LOCFRAME IOVERLAY, 0, STATIC
        LOCFRAME DOVERLAY, 0, STATIC
        ARGFRAME ISTACK, 0, STACK
        ARGFRAME PSTACK, 0, STACK
        ARGFRAME XSTACK, 12, STACK
        ARGFRAME IOVERLAY, 0, STATIC
        ARGFRAME DOVERLAY, 0, STATIC
        FUNCALL SerialApp_ProcessEvent, osal_start_timerEx
        LOCFRAME ISTACK, 0, STACK
        LOCFRAME PSTACK, 0, STACK
        LOCFRAME XSTACK, 12, STACK
        LOCFRAME IOVERLAY, 0, STATIC
        LOCFRAME DOVERLAY, 0, STATIC
        ARGFRAME ISTACK, 0, STACK
        ARGFRAME PSTACK, 0, STACK
        ARGFRAME XSTACK, 12, STACK
        ARGFRAME IOVERLAY, 0, STATIC
        ARGFRAME DOVERLAY, 0, STATIC
        MOV     A,#-0xc
        LCALL   ?BANKED_ENTER_XDATA
        CFI DPH0 load(1, XDATA, add(CFA_XSP16, literal(-1)))
        CFI DPL0 load(1, XDATA, add(CFA_XSP16, literal(-2)))
        CFI ?BRET_EXT load(1, XDATA, add(CFA_XSP16, literal(-3)))
        CFI ?RET_HIGH load(1, XDATA, add(CFA_XSP16, literal(-4)))
        CFI ?RET_LOW load(1, XDATA, add(CFA_XSP16, literal(-5)))
        CFI R7 load(1, XDATA, add(CFA_XSP16, literal(-6)))
        CFI V3 load(1, XDATA, add(CFA_XSP16, literal(-7)))
        CFI V2 load(1, XDATA, add(CFA_XSP16, literal(-8)))
        CFI V1 load(1, XDATA, add(CFA_XSP16, literal(-9)))
        CFI V0 load(1, XDATA, add(CFA_XSP16, literal(-10)))
        CFI VB load(1, XDATA, add(CFA_XSP16, literal(-11)))
        CFI R6 load(1, XDATA, add(CFA_XSP16, literal(-12)))
        CFI CFA_SP SP+0
        CFI CFA_XSP16 add(XSP16, 12)
        ; Saved register size: 12
        ; Auto size: 0
        MOV     A,R2
        MOV     R6,A
        MOV     A,R3
        MOV     R7,A
//  231   uint8 num=0;
//  232   (void)task_id;  // Intentionally unreferenced parameter
//  233   
//  234   if ( events & SYS_EVENT_MSG )
        ANL     A,#0x80
        JNZ     ??SerialApp_ProcessEvent_0
//  235   {
//  236     afIncomingMSGPacket_t *MSGpkt;
//  237 
//  238     while ( (MSGpkt = (afIncomingMSGPacket_t *)osal_msg_receive( SerialApp_TaskID )) )
//  239     {
//  240       switch ( MSGpkt->hdr.event )
//  241       {         
//  242       case KEY_CHANGE:
//  243         //SerialApp_HandleKeys( ((keyChange_t *)MSGpkt)->state, ((keyChange_t *)MSGpkt)->keys );
//  244         break;
//  245 
//  246       case AF_INCOMING_MSG_CMD:
//  247         SerialApp_ProcessMSGCmd( MSGpkt );
//  248         break;
//  249 
//  250       case ZDO_STATE_CHANGE:
//  251           SampleApp_NwkState = (devStates_t)(MSGpkt->hdr.status);
//  252           if(SampleApp_NwkState == DEV_END_DEVICE) //判定当前设备类型
//  253           {
//  254             LED(1,ON);
//  255             osal_set_event(SerialApp_TaskID, PERIOD_EVT); //启动周期消息
//  256             osal_set_event(SerialApp_TaskID, HALL_READ_EVT); //启动光照检测
//  257           }
//  258         break;
//  259       default:
//  260         break;
//  261       }
//  262 
//  263       osal_msg_deallocate( (uint8 *)MSGpkt );
//  264     }
//  265 
//  266     return ( events ^ SYS_EVENT_MSG );
//  267   }
//  268   
//  269   if ( events & PERIOD_EVT ) //周期消息处理
        MOV     A,R6
        ANL     A,#0x2
        JNZ     $+5
        LJMP    ??SerialApp_ProcessEvent_1 & 0xFFFF
//  270   {
//  271     UART0_Format.Command = MSG_PERIOD;
        MOV     DPTR,#UART0_Format + 4
        MOV     A,#-0x56
        MOVX    @DPTR,A
//  272     UART0_Format.Data[0] = 0x00;
        INC     DPTR
        CLR     A
        MOVX    @DPTR,A
//  273     
//  274     
//  275     num = CheckSum(&UART0_Format.Header,UART0_Format.Len);
//  276     UART0_Format.Verify  = num; 
        ; Setup parameters for call to function CheckSum
        MOV     DPTR,#UART0_Format + 1
        MOVX    A,@DPTR
        MOV     R1,A
        MOV     R2,#UART0_Format & 0xff
        MOV     R3,#(UART0_Format >> 8) & 0xff
        LCALL   ??CheckSum?relay
        MOV     A,R1
        MOV     DPTR,#UART0_Format + 15
        MOVX    @DPTR,A
//  277       
//  278     SerialApp_OTAData(&SerialApp_TxAddr, SERIALAPP_CLUSTERID1, &UART0_Format, sizeof(UART_Format));
        ; Setup parameters for call to function SerialApp_OTAData
        MOV     ?V0 + 0,#0x10
        MOV     R0,#?V0 + 0
        LCALL   ?PUSH_XSTACK_I_ONE
        CFI CFA_XSP16 add(XSP16, 13)
        MOV     R4,#UART0_Format & 0xff
        MOV     R5,#(UART0_Format >> 8) & 0xff
        MOV     R1,#0x1
        MOV     R2,#SerialApp_TxAddr & 0xff
        MOV     R3,#(SerialApp_TxAddr >> 8) & 0xff
        LCALL   ??SerialApp_OTAData?relay
        MOV     A,#0x1
        LCALL   ?DEALLOC_XSTACK8
        CFI CFA_XSP16 add(XSP16, 12)
//  279     osal_start_timerEx(SerialApp_TaskID, PERIOD_EVT, 5000);
        ; Setup parameters for call to function osal_start_timerEx
        MOV     R4,#-0x78
        MOV     R5,#0x13
        MOV     R2,#0x2
        MOV     R3,#0x0
        MOV     DPTR,#SerialApp_TaskID
        MOVX    A,@DPTR
        MOV     R1,A
        LCALL   ??osal_start_timerEx?relay
//  280     FLASHLED(2);
        ; Setup parameters for call to function FLASHLED
        MOV     R1,#0x2
        LCALL   ??FLASHLED?relay
//  281     return ( events ^ PERIOD_EVT );
        MOV     A,R6
        XRL     A,#0x2
??SerialApp_ProcessEvent_2:
        MOV     R2,A
        MOV     A,R7
??SerialApp_ProcessEvent_3:
        MOV     R3,A
        LJMP    ??SerialApp_ProcessEvent_4 & 0xFFFF
//  282   }
??SerialApp_ProcessEvent_5:
        INC     DPTR
        MOVX    A,@DPTR
        MOV     DPTR,#SampleApp_NwkState
        MOVX    @DPTR,A
        XRL     A,#0x6
        JNZ     ??CrossCallReturnLabel_1
        ; Setup parameters for call to function LED
        MOV     R2,#0x1
        MOV     R1,#0x1
        LCALL   ??LED?relay
        ; Setup parameters for call to function osal_set_event
        MOV     R2,#0x2
        LCALL   ?Subroutine2 & 0xFFFF
??CrossCallReturnLabel_0:
        ; Setup parameters for call to function osal_set_event
        MOV     R2,#0x4
        LCALL   ?Subroutine2 & 0xFFFF
??CrossCallReturnLabel_1:
        ; Setup parameters for call to function osal_msg_deallocate
        MOV     R2,?V0 + 0
        MOV     R3,?V0 + 1
        LCALL   ??osal_msg_deallocate?relay
??SerialApp_ProcessEvent_0:
        ; Setup parameters for call to function osal_msg_receive
        MOV     DPTR,#SerialApp_TaskID
        MOVX    A,@DPTR
        MOV     R1,A
        LCALL   ??osal_msg_receive?relay
        MOV     ?V0 + 0,R2
        MOV     ?V0 + 1,R3
        MOV     A,R2
        ORL     A,?V0 + 1
        JZ      ??SerialApp_ProcessEvent_6
        MOV     DPL,R2
        MOV     DPH,R3
        MOVX    A,@DPTR
        ADD     A,#-0x1a
        JZ      ??SerialApp_ProcessEvent_7
        ADD     A,#0x49
        JZ      ??SerialApp_ProcessEvent_5
        SJMP    ??CrossCallReturnLabel_1
??SerialApp_ProcessEvent_7:
        INC     DPTR
        INC     DPTR
        INC     DPTR
        INC     DPTR
        MOVX    A,@DPTR
        XRL     A,#0x1
        JNZ     ??SerialApp_ProcessEvent_8
        INC     DPTR
        MOVX    A,@DPTR
??SerialApp_ProcessEvent_8:
        JNZ     ??CrossCallReturnLabel_1
        MOV     A,R2
        ADD     A,#0x22
        MOV     DPL,A
        MOV     A,R3
        ADDC    A,#0x0
        MOV     DPH,A
        MOVX    A,@DPTR
        MOV     R0,A
        INC     DPTR
        MOVX    A,@DPTR
        MOV     R1,A
        MOV     DPTR,#??receiveData
        MOV     A,R0
        MOVX    @DPTR,A
        INC     DPTR
        MOV     A,R1
        MOVX    @DPTR,A
        ; Setup parameters for call to function HalLedBlink
        MOV     R4,#-0x38
        MOV     R5,#0x0
        MOV     R3,#0x32
        MOV     R2,#0x1
        MOV     R1,#0x1
        LCALL   ??HalLedBlink?relay
        ; Setup parameters for call to function CheckSum
        MOV     DPTR,#??receiveData
        MOVX    A,@DPTR
        MOV     R0,A
        INC     DPTR
        MOVX    A,@DPTR
        MOV     DPH,A
        MOV     DPL,R0
        INC     DPTR
        MOVX    A,@DPTR
        MOV     R1,A
        MOV     DPTR,#??receiveData
        MOVX    A,@DPTR
        MOV     R2,A
        INC     DPTR
        MOVX    A,@DPTR
        MOV     R3,A
        LCALL   ??CheckSum?relay
        SJMP    ??CrossCallReturnLabel_1
??SerialApp_ProcessEvent_6:
        MOV     A,R6
        MOV     R2,A
        MOV     A,R7
        XRL     A,#0x80
        LJMP    ??SerialApp_ProcessEvent_3 & 0xFFFF
//  283   
//  284   if ( events & SERIALAPP_SEND_EVT ) //发送RF消息
??SerialApp_ProcessEvent_1:
        MOV     A,R6
        MOV     C,0xE0 /* A   */.0
        JNC     ??SerialApp_ProcessEvent_9
//  285   { 
//  286     num = CheckSum(&UART0_Format1.Header,UART0_Format1.Len);
//  287     UART0_Format1.Verify  = num; 
        ; Setup parameters for call to function CheckSum
        MOV     DPTR,#UART0_Format1 + 1
        MOVX    A,@DPTR
        MOV     R1,A
        MOV     R2,#UART0_Format1 & 0xff
        MOV     R3,#(UART0_Format1 >> 8) & 0xff
        LCALL   ??CheckSum?relay
        MOV     A,R1
        MOV     DPTR,#UART0_Format1 + 6
        MOVX    @DPTR,A
//  288     
//  289     SerialApp_OTAData(&SerialApp_TxAddr,SERIALAPP_CLUSTERID1, &UART0_Format1, 7);
        ; Setup parameters for call to function SerialApp_OTAData
        MOV     ?V0 + 0,#0x7
        MOV     R0,#?V0 + 0
        LCALL   ?PUSH_XSTACK_I_ONE
        CFI CFA_XSP16 add(XSP16, 13)
        MOV     R4,#UART0_Format1 & 0xff
        MOV     R5,#(UART0_Format1 >> 8) & 0xff
        MOV     R1,#0x1
        MOV     R2,#SerialApp_TxAddr & 0xff
        MOV     R3,#(SerialApp_TxAddr >> 8) & 0xff
        LCALL   ??SerialApp_OTAData?relay
        MOV     A,#0x1
        LCALL   ?DEALLOC_XSTACK8
        CFI CFA_XSP16 add(XSP16, 12)
//  290     FLASHLED(4);
        ; Setup parameters for call to function FLASHLED
        MOV     R1,#0x4
        LCALL   ??FLASHLED?relay
//  291     return ( events ^ SERIALAPP_SEND_EVT );
        MOV     A,R6
        XRL     A,#0x1
        LJMP    ??SerialApp_ProcessEvent_2 & 0xFFFF
//  292   }
//  293 
//  294   if ( events & HALL_READ_EVT )  //查看光敏电阻状态
??SerialApp_ProcessEvent_9:
        ANL     A,#0x4
        JZ      ??SerialApp_ProcessEvent_10
//  295   {
//  296     HallStatusOld = HallStatusNow;  //保存当前状态
        MOV     DPTR,#HallStatusNow
        MOVX    A,@DPTR
        MOV     DPTR,#HallStatusOld
        MOVX    @DPTR,A
//  297     if(HALL_GPIO == HIGH)
        MOV     C,0x80.0
        JNC     ??SerialApp_ProcessEvent_11
//  298     {
//  299       HallStatusNow = HALL_NO;
        MOV     DPTR,#HallStatusNow
        CLR     A
        SJMP    ??SerialApp_ProcessEvent_12
//  300     }
//  301     else if(HALL_GPIO == LOW)
??SerialApp_ProcessEvent_11:
        MOV     C,0x80.0
        JC      ??SerialApp_ProcessEvent_13
//  302     {
//  303       HallStatusNow = HALL_YES;
        MOV     DPTR,#HallStatusNow
        MOV     A,#0x1
??SerialApp_ProcessEvent_12:
        MOVX    @DPTR,A
//  304     }
//  305     
//  306     if(HallStatusNow != HallStatusOld) //如果当前状态和上一个状态发生变化，发送消息给网关
??SerialApp_ProcessEvent_13:
        MOV     DPTR,#HallStatusNow
        MOVX    A,@DPTR
        MOV     R0,A
        MOV     DPTR,#HallStatusOld
        MOVX    A,@DPTR
        XRL     A,R0
        JZ      ??CrossCallReturnLabel_2
//  307     {
//  308       UART0_Format1.Command = 0x01;
        MOV     DPTR,#UART0_Format1 + 4
        MOV     A,#0x1
        MOVX    @DPTR,A
//  309       if(HallStatusNow == HALL_YES)
        MOV     DPTR,#HallStatusNow
        MOVX    A,@DPTR
        XRL     A,#0x1
        JNZ     ??SerialApp_ProcessEvent_14
//  310       {
//  311         UART0_Format1.Data[0] = 0x01;
        MOV     DPTR,#UART0_Format1 + 5
        MOV     A,#0x1
        SJMP    ??SerialApp_ProcessEvent_15
//  312         
//  313       }
//  314       else if(HallStatusNow == HALL_NO)
??SerialApp_ProcessEvent_14:
        MOVX    A,@DPTR
        JNZ     ??SerialApp_ProcessEvent_16
//  315       {
//  316         UART0_Format1.Data[0] = 0x00;
        MOV     DPTR,#UART0_Format1 + 5
        CLR     A
??SerialApp_ProcessEvent_15:
        MOVX    @DPTR,A
//  317              
//  318       }
//  319       osal_set_event(SerialApp_TaskID, SERIALAPP_SEND_EVT);
??SerialApp_ProcessEvent_16:
        ; Setup parameters for call to function osal_set_event
        MOV     R2,#0x1
        LCALL   ?Subroutine2 & 0xFFFF
//  320     }
//  321     
//  322     osal_start_timerEx(SerialApp_TaskID, HALL_READ_EVT, 200);
??CrossCallReturnLabel_2:
        ; Setup parameters for call to function osal_start_timerEx
        MOV     R4,#-0x38
        MOV     R5,#0x0
        MOV     R2,#0x4
        MOV     R3,#0x0
        MOV     DPTR,#SerialApp_TaskID
        MOVX    A,@DPTR
        MOV     R1,A
        LCALL   ??osal_start_timerEx?relay
//  323     
//  324     return ( events ^ HALL_READ_EVT );
        MOV     A,R6
        XRL     A,#0x4
        LJMP    ??SerialApp_ProcessEvent_2 & 0xFFFF
//  325   }
//  326 
//  327   return ( 0 );  // Discard unknown events.
??SerialApp_ProcessEvent_10:
        MOV     R2,#0x0
        MOV     R3,#0x0
        CFI EndBlock cfiBlock2
??SerialApp_ProcessEvent_4:
        REQUIRE ?Subroutine1
        REQUIRE _A_P0
        ; // Fall through to label ?Subroutine1
//  328 }

        RSEG BANKED_CODE:CODE:NOROOT(0)
?Subroutine1:
        CFI Block cfiBlock3 Using cfiCommon0
        CFI NoFunction
        CFI CFA_SP SP+0
        CFI CFA_XSP16 add(XSP16, 12)
        CFI VB load(1, XDATA, add(CFA_XSP16, literal(-11)))
        CFI DPL0 load(1, XDATA, add(CFA_XSP16, literal(-2)))
        CFI DPH0 load(1, XDATA, add(CFA_XSP16, literal(-1)))
        CFI R6 load(1, XDATA, add(CFA_XSP16, literal(-12)))
        CFI R7 load(1, XDATA, add(CFA_XSP16, literal(-6)))
        CFI V0 load(1, XDATA, add(CFA_XSP16, literal(-10)))
        CFI V1 load(1, XDATA, add(CFA_XSP16, literal(-9)))
        CFI V2 load(1, XDATA, add(CFA_XSP16, literal(-8)))
        CFI V3 load(1, XDATA, add(CFA_XSP16, literal(-7)))
        CFI ?BRET_EXT load(1, XDATA, add(CFA_XSP16, literal(-3)))
        CFI ?RET_HIGH load(1, XDATA, add(CFA_XSP16, literal(-4)))
        CFI ?RET_LOW load(1, XDATA, add(CFA_XSP16, literal(-5)))
        MOV     R7,#0x4
        LJMP    ?BANKED_LEAVE_XDATA
        CFI EndBlock cfiBlock3

        RSEG BANKED_CODE:CODE:NOROOT(0)
?Subroutine2:
        CFI Block cfiCond4 Using cfiCommon0
        CFI NoFunction
        CFI Conditional ??CrossCallReturnLabel_0
        CFI R6 load(1, XDATA, add(CFA_XSP16, literal(-12)))
        CFI VB load(1, XDATA, add(CFA_XSP16, literal(-11)))
        CFI V0 load(1, XDATA, add(CFA_XSP16, literal(-10)))
        CFI V1 load(1, XDATA, add(CFA_XSP16, literal(-9)))
        CFI V2 load(1, XDATA, add(CFA_XSP16, literal(-8)))
        CFI V3 load(1, XDATA, add(CFA_XSP16, literal(-7)))
        CFI R7 load(1, XDATA, add(CFA_XSP16, literal(-6)))
        CFI ?RET_LOW load(1, XDATA, add(CFA_XSP16, literal(-5)))
        CFI ?RET_HIGH load(1, XDATA, add(CFA_XSP16, literal(-4)))
        CFI ?BRET_EXT load(1, XDATA, add(CFA_XSP16, literal(-3)))
        CFI DPL0 load(1, XDATA, add(CFA_XSP16, literal(-2)))
        CFI DPH0 load(1, XDATA, add(CFA_XSP16, literal(-1)))
        CFI CFA_SP SP+0
        CFI CFA_XSP16 add(XSP16, 12)
        CFI Block cfiCond5 Using cfiCommon0
        CFI (cfiCond5) NoFunction
        CFI (cfiCond5) Conditional ??CrossCallReturnLabel_1
        CFI (cfiCond5) R6 load(1, XDATA, add(CFA_XSP16, literal(-12)))
        CFI (cfiCond5) VB load(1, XDATA, add(CFA_XSP16, literal(-11)))
        CFI (cfiCond5) V0 load(1, XDATA, add(CFA_XSP16, literal(-10)))
        CFI (cfiCond5) V1 load(1, XDATA, add(CFA_XSP16, literal(-9)))
        CFI (cfiCond5) V2 load(1, XDATA, add(CFA_XSP16, literal(-8)))
        CFI (cfiCond5) V3 load(1, XDATA, add(CFA_XSP16, literal(-7)))
        CFI (cfiCond5) R7 load(1, XDATA, add(CFA_XSP16, literal(-6)))
        CFI (cfiCond5) ?RET_LOW load(1, XDATA, add(CFA_XSP16, literal(-5)))
        CFI (cfiCond5) ?RET_HIGH load(1, XDATA, add(CFA_XSP16, literal(-4)))
        CFI (cfiCond5) ?BRET_EXT load(1, XDATA, add(CFA_XSP16, literal(-3)))
        CFI (cfiCond5) DPL0 load(1, XDATA, add(CFA_XSP16, literal(-2)))
        CFI (cfiCond5) DPH0 load(1, XDATA, add(CFA_XSP16, literal(-1)))
        CFI (cfiCond5) CFA_SP SP+0
        CFI (cfiCond5) CFA_XSP16 add(XSP16, 12)
        CFI Block cfiCond6 Using cfiCommon0
        CFI (cfiCond6) NoFunction
        CFI (cfiCond6) Conditional ??CrossCallReturnLabel_2
        CFI (cfiCond6) R6 load(1, XDATA, add(CFA_XSP16, literal(-12)))
        CFI (cfiCond6) VB load(1, XDATA, add(CFA_XSP16, literal(-11)))
        CFI (cfiCond6) V0 load(1, XDATA, add(CFA_XSP16, literal(-10)))
        CFI (cfiCond6) V1 load(1, XDATA, add(CFA_XSP16, literal(-9)))
        CFI (cfiCond6) V2 load(1, XDATA, add(CFA_XSP16, literal(-8)))
        CFI (cfiCond6) V3 load(1, XDATA, add(CFA_XSP16, literal(-7)))
        CFI (cfiCond6) R7 load(1, XDATA, add(CFA_XSP16, literal(-6)))
        CFI (cfiCond6) ?RET_LOW load(1, XDATA, add(CFA_XSP16, literal(-5)))
        CFI (cfiCond6) ?RET_HIGH load(1, XDATA, add(CFA_XSP16, literal(-4)))
        CFI (cfiCond6) ?BRET_EXT load(1, XDATA, add(CFA_XSP16, literal(-3)))
        CFI (cfiCond6) DPL0 load(1, XDATA, add(CFA_XSP16, literal(-2)))
        CFI (cfiCond6) DPH0 load(1, XDATA, add(CFA_XSP16, literal(-1)))
        CFI (cfiCond6) CFA_SP SP+0
        CFI (cfiCond6) CFA_XSP16 add(XSP16, 12)
        CFI Block cfiPicker7 Using cfiCommon1
        CFI (cfiPicker7) NoFunction
        CFI (cfiPicker7) Picker
        MOV     R3,#0x0
        MOV     DPTR,#SerialApp_TaskID
        MOVX    A,@DPTR
        MOV     R1,A
        LCALL   ??osal_set_event?relay
        RET
        CFI EndBlock cfiCond4
        CFI EndBlock cfiCond5
        CFI EndBlock cfiCond6
        CFI EndBlock cfiPicker7
//  329 
//  330 /*****************************************************************************************
//  331 *函数名称 ：消息处理函数				                                 
//  332 *入口参数 ：pkt   - 指向接收到的无线消息数据包的指针                                 
//  333 *返 回 值 ：TRUE  - 如果指针被应用并释放            
//  334 *           FALSE - 其他	                                                          
//  335 *说    明 ：处理收到的无线消息，并把消息通过串口发送给网关                               
//  336 *****************************************************************************************/
//  337 
//  338 void SerialApp_ProcessMSGCmd( afIncomingMSGPacket_t *pkt )  //处理接收到的RF消息
//  339 { 
//  340   uint8 num=0;

        RSEG XDATA_Z:XDATA:NOROOT(0)
        DATA16
//  341   static UART_Format *receiveData;
??receiveData:
        DS 2
        REQUIRE __INIT_XDATA_Z
//  342   switch ( pkt->clusterId )
//  343   {
//  344    case SERIALAPP_CLUSTERID1:  //处理各个传感器节数据    
//  345      receiveData = (UART_Format *)(pkt->cmd.Data);
//  346      HalLedBlink(HAL_LED_1,1,50,200);
//  347      
//  348      num = CheckSum((uint8*)receiveData,receiveData->Len);
//  349      
//  350      if((receiveData->Header==0x40)&&(receiveData->Verify==num)) //校验包头包尾
//  351      {
//  352        
//  353      }
//  354     break;
//  355 
//  356   case SERIALAPP_CLUSTERID2:
//  357     break;
//  358 
//  359     default:
//  360       break;
//  361   }
//  362 }
//  363 
//  364 /*****************************************************************************************
//  365 *函数名称 ：无线消息发送函数				                                 
//  366 *入口参数 ：*txaddr - 发送地址
//  367 *           cID     - clusterID
//  368 *           *p      - 发送数据包的地址
//  369 *           len     - 发送数据包的长度
//  370 *返 回 值 ：无                                                                                
//  371 *说    明 ：把组好的数据包，通过无线发送出去                                                            
//  372 *****************************************************************************************/
//  373 
//  374 

        RSEG BANKED_CODE:CODE:NOROOT(0)
//  375 void SerialApp_OTAData(afAddrType_t *txaddr, uint8 cID, void *p, uint8 len) //发送函数
SerialApp_OTAData:
        CFI Block cfiBlock8 Using cfiCommon0
        CFI Function SerialApp_OTAData
        CODE
//  376 {
        FUNCALL SerialApp_OTAData, AF_DataRequest
        LOCFRAME ISTACK, 0, STACK
        LOCFRAME PSTACK, 0, STACK
        LOCFRAME XSTACK, 19, STACK
        LOCFRAME IOVERLAY, 0, STATIC
        LOCFRAME DOVERLAY, 0, STATIC
        ARGFRAME ISTACK, 0, STACK
        ARGFRAME PSTACK, 0, STACK
        ARGFRAME XSTACK, 19, STACK
        ARGFRAME IOVERLAY, 0, STATIC
        ARGFRAME DOVERLAY, 0, STATIC
        FUNCALL SerialApp_OTAData, HalLedBlink
        LOCFRAME ISTACK, 0, STACK
        LOCFRAME PSTACK, 0, STACK
        LOCFRAME XSTACK, 10, STACK
        LOCFRAME IOVERLAY, 0, STATIC
        LOCFRAME DOVERLAY, 0, STATIC
        ARGFRAME ISTACK, 0, STACK
        ARGFRAME PSTACK, 0, STACK
        ARGFRAME XSTACK, 10, STACK
        ARGFRAME IOVERLAY, 0, STATIC
        ARGFRAME DOVERLAY, 0, STATIC
        MOV     A,#-0xa
        LCALL   ?BANKED_ENTER_XDATA
        CFI DPH0 load(1, XDATA, add(CFA_XSP16, literal(-1)))
        CFI DPL0 load(1, XDATA, add(CFA_XSP16, literal(-2)))
        CFI ?BRET_EXT load(1, XDATA, add(CFA_XSP16, literal(-3)))
        CFI ?RET_HIGH load(1, XDATA, add(CFA_XSP16, literal(-4)))
        CFI ?RET_LOW load(1, XDATA, add(CFA_XSP16, literal(-5)))
        CFI R7 load(1, XDATA, add(CFA_XSP16, literal(-6)))
        CFI V1 load(1, XDATA, add(CFA_XSP16, literal(-7)))
        CFI V0 load(1, XDATA, add(CFA_XSP16, literal(-8)))
        CFI VB load(1, XDATA, add(CFA_XSP16, literal(-9)))
        CFI R6 load(1, XDATA, add(CFA_XSP16, literal(-10)))
        CFI CFA_SP SP+0
        CFI CFA_XSP16 add(XSP16, 10)
        ; Saved register size: 10
        ; Auto size: 0
        MOV     A,R1
        MOV     R6,A
        MOV     A,#0xa
        LCALL   ?XSTACK_DISP0_8
        MOVX    A,@DPTR
        MOV     R1,A
//  377   if (afStatus_SUCCESS != AF_DataRequest(txaddr, //发送地址
//  378                                            (endPointDesc_t *)&SerialApp_epDesc, //endpoint描述
//  379                                             cID, //clusterID
//  380                                             len, p, //发送数据包的长度和地址
//  381                                             &SerialApp_MsgID, 0, AF_DEFAULT_RADIUS))
        ; Setup parameters for call to function AF_DataRequest
        MOV     ?V0 + 0,#0x1e
        MOV     R0,#?V0 + 0
        LCALL   ?PUSH_XSTACK_I_ONE
        CFI CFA_XSP16 add(XSP16, 11)
        MOV     ?V0 + 0,#SerialApp_MsgID & 0xff
        MOV     ?V0 + 1,#(SerialApp_MsgID >> 8) & 0xff
        MOV     R0,#?V0 + 0
        LCALL   ?PUSH_XSTACK_I_TWO
        CFI CFA_XSP16 add(XSP16, 13)
        MOV     ?V0 + 0,R4
        MOV     ?V0 + 1,R5
        MOV     R0,#?V0 + 0
        LCALL   ?PUSH_XSTACK_I_TWO
        CFI CFA_XSP16 add(XSP16, 15)
        MOV     ?V0 + 0,R1
        MOV     ?V0 + 1,#0x0
        MOV     R0,#?V0 + 0
        LCALL   ?PUSH_XSTACK_I_TWO
        CFI CFA_XSP16 add(XSP16, 17)
        MOV     ?V0 + 0,R6
        MOV     R0,#?V0 + 0
        LCALL   ?PUSH_XSTACK_I_TWO
        CFI CFA_XSP16 add(XSP16, 19)
        MOV     R1,#0x0
        MOV     R4,#SerialApp_epDesc & 0xff
        MOV     R5,#(SerialApp_epDesc >> 8) & 0xff
        LCALL   ??AF_DataRequest?relay
        MOV     A,#0x9
        LCALL   ?DEALLOC_XSTACK8
        CFI CFA_XSP16 add(XSP16, 10)
        MOV     A,R1
        JNZ     ??SerialApp_OTAData_0
//  382   {
//  383   }
//  384   else
//  385   {
//  386     HalLedBlink(HAL_LED_1,1,50,200);
        ; Setup parameters for call to function HalLedBlink
        MOV     R4,#-0x38
        MOV     R5,#0x0
        MOV     R3,#0x32
        MOV     R2,#0x1
        MOV     R1,#0x1
        LCALL   ??HalLedBlink?relay
//  387   }
//  388 }
??SerialApp_OTAData_0:
        MOV     R7,#0x2
        LJMP    ?BANKED_LEAVE_XDATA
        CFI EndBlock cfiBlock8
//  389 
//  390 /*****************************************************************************************
//  391 *函数名称 ：串口回调函数				                                 
//  392 *入口参数 ：port  -端口号
//  393 *           event -事件号
//  394 *返 回 值 ：无                                                                              
//  395 *说    明 ：把串口消息通过无线发送出去                                                             
//  396 *****************************************************************************************/
//  397 

        RSEG BANKED_CODE:CODE:NOROOT(0)
//  398 static void SerialApp_CallBack(uint8 port, uint8 event)
SerialApp_CallBack:
        CFI Block cfiBlock9 Using cfiCommon0
        CFI Function SerialApp_CallBack
        CODE
//  399 {
        FUNCALL SerialApp_CallBack, HalUARTRead
        LOCFRAME ISTACK, 0, STACK
        LOCFRAME PSTACK, 0, STACK
        LOCFRAME XSTACK, 9, STACK
        LOCFRAME IOVERLAY, 0, STATIC
        LOCFRAME DOVERLAY, 0, STATIC
        ARGFRAME ISTACK, 0, STACK
        ARGFRAME PSTACK, 0, STACK
        ARGFRAME XSTACK, 9, STACK
        ARGFRAME IOVERLAY, 0, STATIC
        ARGFRAME DOVERLAY, 0, STATIC
        MOV     A,#-0x9
        LCALL   ?BANKED_ENTER_XDATA
        CFI DPH0 load(1, XDATA, add(CFA_XSP16, literal(-1)))
        CFI DPL0 load(1, XDATA, add(CFA_XSP16, literal(-2)))
        CFI ?BRET_EXT load(1, XDATA, add(CFA_XSP16, literal(-3)))
        CFI ?RET_HIGH load(1, XDATA, add(CFA_XSP16, literal(-4)))
        CFI ?RET_LOW load(1, XDATA, add(CFA_XSP16, literal(-5)))
        CFI R7 load(1, XDATA, add(CFA_XSP16, literal(-6)))
        CFI V0 load(1, XDATA, add(CFA_XSP16, literal(-7)))
        CFI VB load(1, XDATA, add(CFA_XSP16, literal(-8)))
        CFI R6 load(1, XDATA, add(CFA_XSP16, literal(-9)))
        CFI CFA_SP SP+0
        CFI CFA_XSP16 add(XSP16, 9)
        ; Saved register size: 9
        ; Auto size: 0
        MOV     A,R2
        MOV     R6,A
//  400   (void)port;
//  401 
//  402   if ((event & (HAL_UART_RX_FULL | HAL_UART_RX_ABOUT_FULL | HAL_UART_RX_TIMEOUT)) && !SerialApp_TxLen) //串口接收到数据包
        MOV     A,#0x7
        ANL     A,R6
        JZ      ??SerialApp_CallBack_0
        MOV     DPTR,#SerialApp_TxLen
        MOVX    A,@DPTR
        JNZ     ??SerialApp_CallBack_0
//  403   {
//  404     SerialApp_TxLen = HalUARTRead(SERIAL_APP_PORT, SerialApp_TxBuf, SERIAL_APP_TX_MAX); //将串口数据读入buf
        ; Setup parameters for call to function HalUARTRead
        MOV     R4,#0x14
        MOV     R5,#0x0
        MOV     R2,#SerialApp_TxBuf & 0xff
        MOV     R3,#(SerialApp_TxBuf >> 8) & 0xff
        MOV     R1,#0x0
        LCALL   ??HalUARTRead?relay
//  405     SerialApp_TxLen = 0;  
        MOV     DPTR,#SerialApp_TxLen
        CLR     A
        MOVX    @DPTR,A
//  406   }
//  407 }
??SerialApp_CallBack_0:
        LJMP    ?Subroutine0 & 0xFFFF
        CFI EndBlock cfiBlock9
//  408 
//  409 /*****************************************************************************************
//  410 *函数名称 ：累加校验和函数				                                 
//  411 *入口参数 ：*data - 数据包地址
//  412             len   - 数据包长度
//  413 *返 回 值 ：sum   - 累加和                                                                                
//  414 *说    明 ：对数据包进行累加和校验                                                             
//  415 *****************************************************************************************/
//  416 

        RSEG BANKED_CODE:CODE:NOROOT(0)
//  417 uint8 CheckSum(uint8 *data,uint8 len)
CheckSum:
        CFI Block cfiBlock10 Using cfiCommon0
        CFI Function CheckSum
        CODE
//  418 {
        MOV     A,#-0xc
        LCALL   ?BANKED_ENTER_XDATA
        CFI DPH0 load(1, XDATA, add(CFA_XSP16, literal(-1)))
        CFI DPL0 load(1, XDATA, add(CFA_XSP16, literal(-2)))
        CFI ?BRET_EXT load(1, XDATA, add(CFA_XSP16, literal(-3)))
        CFI ?RET_HIGH load(1, XDATA, add(CFA_XSP16, literal(-4)))
        CFI ?RET_LOW load(1, XDATA, add(CFA_XSP16, literal(-5)))
        CFI R7 load(1, XDATA, add(CFA_XSP16, literal(-6)))
        CFI V3 load(1, XDATA, add(CFA_XSP16, literal(-7)))
        CFI V2 load(1, XDATA, add(CFA_XSP16, literal(-8)))
        CFI V1 load(1, XDATA, add(CFA_XSP16, literal(-9)))
        CFI V0 load(1, XDATA, add(CFA_XSP16, literal(-10)))
        CFI VB load(1, XDATA, add(CFA_XSP16, literal(-11)))
        CFI R6 load(1, XDATA, add(CFA_XSP16, literal(-12)))
        CFI CFA_SP SP+0
        CFI CFA_XSP16 add(XSP16, 12)
        ; Saved register size: 12
        ; Auto size: 0
        MOV     A,R1
        MOV     R6,A
//  419   uint8 i,sum=0;
        MOV     R1,#0x0
//  420   for(i=0;i<(len-1);i++)
        MOV     R0,#0x0
        SJMP    ??CheckSum_0
//  421   {
//  422     sum+=data[i];
??CheckSum_1:
        MOV     A,R2
        ADD     A,?V0 + 0
        MOV     DPL,A
        MOV     A,R3
        ADDC    A,#0x0
        MOV     DPH,A
        MOVX    A,@DPTR
        ADD     A,R1
        MOV     R1,A
//  423   }
        INC     R0
??CheckSum_0:
        MOV     ?V0 + 0,R0
        MOV     A,R6
        ADD     A,#-0x1
        MOV     R4,A
        CLR     A
        ADDC    A,#-0x1
        MOV     R5,A
        CLR     C
        MOV     A,?V0 + 0
        SUBB    A,R4
        CLR     A
        SUBB    A,R5
        MOV     C,0xD0 /* PSW */.2
        XRL     A,PSW
        RLC     A
        JC      ??CheckSum_1
//  424   return sum;
        LJMP    ?Subroutine1 & 0xFFFF
        CFI EndBlock cfiBlock10
//  425 }

        RSEG BANK_RELAYS:CODE:REORDER:NOROOT(0)
??SerialApp_Init?relay:
        LCALL   ?BDISPATCH
        DATA
        DC24    SerialApp_Init

        RSEG BANK_RELAYS:CODE:REORDER:NOROOT(0)
??SerialApp_ProcessEvent?relay:
        LCALL   ?BDISPATCH
        DATA
        DC24    SerialApp_ProcessEvent

        RSEG BANK_RELAYS:CODE:REORDER:NOROOT(0)
??SerialApp_OTAData?relay:
        LCALL   ?BDISPATCH
        DATA
        DC24    SerialApp_OTAData

        RSEG BANK_RELAYS:CODE:REORDER:NOROOT(0)
??SerialApp_CallBack?relay:
        LCALL   ?BDISPATCH
        DATA
        DC24    SerialApp_CallBack

        RSEG BANK_RELAYS:CODE:REORDER:NOROOT(0)
??CheckSum?relay:
        LCALL   ?BDISPATCH
        DATA
        DC24    CheckSum

        END
//  426 /***********************************************/
// 
// 826 bytes in segment BANKED_CODE
//  30 bytes in segment BANK_RELAYS
//   3 bytes in segment SFR_AN
//  22 bytes in segment XDATA_ROM_C
//  63 bytes in segment XDATA_Z
// 
// 856 bytes of CODE  memory
//  22 bytes of CONST memory
//   0 bytes of DATA  memory (+ 3 bytes shared)
//  63 bytes of XDATA memory
//
//Errors: none
//Warnings: none
