###############################################################################
#                                                                             #
# IAR C/C++ Compiler V8.10.1.10194/W32 for 8051         14/Jul/2015  15:42:54 #
# Copyright 2004-2011 IAR Systems AB.                                         #
#                                                                             #
#    Core               =  plain                                              #
#    Code model         =  banked                                             #
#    Data model         =  large                                              #
#    Calling convention =  xdata reentrant                                    #
#    Constant location  =  data_rom                                           #
#    Dptr setup         =  1,16                                               #
#    Source file        =  E:\SKZH_ZStack_V1.1\Projects\zstack\Utilities\Seri #
#                          alApp\Hall\Hall.c                                  #
#    Command line       =  -f E:\SKZH_ZStack_V1.1\Projects\zstack\Utilities\S #
#                          erialApp\CC2530DB\..\..\..\Tools\CC2530DB\f8wEndev #
#                          .cfg (-DCPU32MHZ -DROOT=__near_func                #
#                          -DMAC_CFG_TX_DATA_MAX=3 -DMAC_CFG_TX_MAX=6         #
#                          -DMAC_CFG_RX_MAX=3) -f E:\SKZH_ZStack_V1.1\Project #
#                          s\zstack\Utilities\SerialApp\CC2530DB\..\..\..\Too #
#                          ls\CC2530DB\f8wConfig.cfg (-DZIGBEEPRO -DSECURE=0  #
#                          -DZG_SECURE_DYNAMIC=0 -DREFLECTOR                  #
#                          -DDEFAULT_CHANLIST=0x00000800                      #
#                          -DZDAPP_CONFIG_PAN_ID=0xAA41                       #
#                          -DNWK_START_DELAY=100 -DEXTENDED_JOINING_RANDOM_MA #
#                          SK=0x007F -DBEACON_REQUEST_DELAY=100               #
#                          -DBEACON_REQ_DELAY_MASK=0x00FF                     #
#                          -DLINK_STATUS_JITTER_MASK=0x007F                   #
#                          -DROUTE_EXPIRY_TIME=30 -DAPSC_ACK_WAIT_DURATION_PO #
#                          LLED=3000 -DNWK_INDIRECT_MSG_TIMEOUT=7             #
#                          -DMAX_RREQ_ENTRIES=8 -DAPSC_MAX_FRAME_RETRIES=3    #
#                          -DNWK_MAX_DATA_RETRIES=2                           #
#                          -DMAX_POLL_FAILURE_RETRIES=2 -DMAX_BCAST=9         #
#                          -DAPS_MAX_GROUPS=16 -DMAX_RTG_ENTRIES=40           #
#                          -DNWK_MAX_BINDING_ENTRIES=4                        #
#                          -DMAX_BINDING_CLUSTER_IDS=4 "-DDEFAULT_KEY={0x01,  #
#                          0x03, 0x05, 0x07, 0x09, 0x0B, 0x0D, 0x0F, 0x00,    #
#                          0x02, 0x04, 0x06, 0x08, 0x0A, 0x0C, 0x0D}"         #
#                          -DMAC_MAX_FRAME_SIZE=116                           #
#                          -DZDNWKMGR_MIN_TRANSMISSIONS=20 "-DCONST=const     #
#                          __code" -DGENERIC=__generic                        #
#                          -DRFD_RCVC_ALWAYS_ON=FALSE -DPOLL_RATE=1000        #
#                          -DQUEUED_POLL_RATE=100 -DRESPONSE_POLL_RATE=100)   #
#                          -DREJOIN_POLL_RATE=440 E:\SKZH_ZStack_V1.1\Project #
#                          s\zstack\Utilities\SerialApp\Hall\Hall.c -D        #
#                          NWK_AUTO_POLL -D HAL_UART=TRUE -D                  #
#                          SERIAL_APP_PORT=0 -D POWER_SAVING -D NV_INIT -D    #
#                          NV_RESTORE -D HALL -lC E:\SKZH_ZStack_V1.1\Project #
#                          s\zstack\Utilities\SerialApp\CC2530DB\Hall\List\   #
#                          -lA E:\SKZH_ZStack_V1.1\Projects\zstack\Utilities\ #
#                          SerialApp\CC2530DB\Hall\List\ --diag_suppress      #
#                          Pe001,Pa010 -o E:\SKZH_ZStack_V1.1\Projects\zstack #
#                          \Utilities\SerialApp\CC2530DB\Hall\Obj\ -e         #
#                          --no_code_motion --debug --core=plain --dptr=16,1  #
#                          --data_model=large --code_model=banked             #
#                          --calling_convention=xdata_reentrant               #
#                          --place_constants=data_rom --nr_virtual_regs 16    #
#                          -I E:\SKZH_ZStack_V1.1\Projects\zstack\Utilities\S #
#                          erialApp\CC2530DB\ -I E:\SKZH_ZStack_V1.1\Projects #
#                          \zstack\Utilities\SerialApp\CC2530DB\..\Hall\ -I   #
#                          E:\SKZH_ZStack_V1.1\Projects\zstack\Utilities\Seri #
#                          alApp\CC2530DB\..\Public\ -I                       #
#                          E:\SKZH_ZStack_V1.1\Projects\zstack\Utilities\Seri #
#                          alApp\CC2530DB\..\..\..\ZMain\TI2530DB\ -I         #
#                          E:\SKZH_ZStack_V1.1\Projects\zstack\Utilities\Seri #
#                          alApp\CC2530DB\..\..\..\..\..\Components\hal\inclu #
#                          de\ -I E:\SKZH_ZStack_V1.1\Projects\zstack\Utiliti #
#                          es\SerialApp\CC2530DB\..\..\..\..\..\Components\ha #
#                          l\target\CC2530EB\ -I E:\SKZH_ZStack_V1.1\Projects #
#                          \zstack\Utilities\SerialApp\CC2530DB\..\..\..\..\. #
#                          .\Components\mac\include\ -I                       #
#                          E:\SKZH_ZStack_V1.1\Projects\zstack\Utilities\Seri #
#                          alApp\CC2530DB\..\..\..\..\..\Components\mac\high_ #
#                          level\ -I E:\SKZH_ZStack_V1.1\Projects\zstack\Util #
#                          ities\SerialApp\CC2530DB\..\..\..\..\..\Components #
#                          \mac\low_level\srf04\ -I                           #
#                          E:\SKZH_ZStack_V1.1\Projects\zstack\Utilities\Seri #
#                          alApp\CC2530DB\..\..\..\..\..\Components\mac\low_l #
#                          evel\srf04\single_chip\ -I                         #
#                          E:\SKZH_ZStack_V1.1\Projects\zstack\Utilities\Seri #
#                          alApp\CC2530DB\..\..\..\..\..\Components\mt\ -I    #
#                          E:\SKZH_ZStack_V1.1\Projects\zstack\Utilities\Seri #
#                          alApp\CC2530DB\..\..\..\..\..\Components\osal\incl #
#                          ude\ -I E:\SKZH_ZStack_V1.1\Projects\zstack\Utilit #
#                          ies\SerialApp\CC2530DB\..\..\..\..\..\Components\s #
#                          ervices\saddr\ -I E:\SKZH_ZStack_V1.1\Projects\zst #
#                          ack\Utilities\SerialApp\CC2530DB\..\..\..\..\..\Co #
#                          mponents\services\sdata\ -I                        #
#                          E:\SKZH_ZStack_V1.1\Projects\zstack\Utilities\Seri #
#                          alApp\CC2530DB\..\..\..\..\..\Components\stack\af\ #
#                           -I E:\SKZH_ZStack_V1.1\Projects\zstack\Utilities\ #
#                          SerialApp\CC2530DB\..\..\..\..\..\Components\stack #
#                          \nwk\ -I E:\SKZH_ZStack_V1.1\Projects\zstack\Utili #
#                          ties\SerialApp\CC2530DB\..\..\..\..\..\Components\ #
#                          stack\sapi\ -I E:\SKZH_ZStack_V1.1\Projects\zstack #
#                          \Utilities\SerialApp\CC2530DB\..\..\..\..\..\Compo #
#                          nents\stack\sec\ -I E:\SKZH_ZStack_V1.1\Projects\z #
#                          stack\Utilities\SerialApp\CC2530DB\..\..\..\..\..\ #
#                          Components\stack\sys\ -I                           #
#                          E:\SKZH_ZStack_V1.1\Projects\zstack\Utilities\Seri #
#                          alApp\CC2530DB\..\..\..\..\..\Components\stack\zdo #
#                          \ -I E:\SKZH_ZStack_V1.1\Projects\zstack\Utilities #
#                          \SerialApp\CC2530DB\..\..\..\..\..\Components\zmac #
#                          \ -I E:\SKZH_ZStack_V1.1\Projects\zstack\Utilities #
#                          \SerialApp\CC2530DB\..\..\..\..\..\Components\zmac #
#                          \f8w\ -Ohz --require_prototypes                    #
#    List file          =  E:\SKZH_ZStack_V1.1\Projects\zstack\Utilities\Seri #
#                          alApp\CC2530DB\Hall\List\Hall.lst                  #
#    Object file        =  E:\SKZH_ZStack_V1.1\Projects\zstack\Utilities\Seri #
#                          alApp\CC2530DB\Hall\Obj\Hall.r51                   #
#                                                                             #
#                                                                             #
###############################################################################

E:\SKZH_ZStack_V1.1\Projects\zstack\Utilities\SerialApp\Hall\Hall.c
      1          /**************************************Copyright(c)****************************************
      2          * 　　　　　　　　            青岛山科智汇信息科技有限公司 　　　　　 　　                *
      3          * 　　　　　　　　　　　　　                          　　　　　　　　　　　　　　　　　　*
      4          * 　　　　　　　　　                  www.iotsk.com 　　　　　　　　　                  　*
      5          * 　　　　　　　　　　　　　　　　　　　　　　　　　　　                          　　　　*
      6          *----------------------------------------File Info----------------------------------------*
      7          *文 件 名 ：Hall.c　　　　　　                                                            *
      8          *修改日期 ：2013.11.21 　　　　　　　　　　　　　　                                       *
      9          *版 本 号 ：V1.0　　　　　　　　　　　　　　　　　                                        *
     10          *描    述 ：霍尔传感器模块的终端节点程序                                                  *
     11          *                                                                                         *
     12          ******************************************************************************************/
     13          /******************************************************************************************
     14          *                                       INCLUDES                                          *
     15          ******************************************************************************************/
     16          
     17          #include "AF.h"
     18          #include "OnBoard.h"

   \                                 In  segment SFR_AN, at 0x80
   \   union <unnamed> volatile __sfr _A_P0
   \                     _A_P0:
   \   000000                DS 1

   \                                 In  segment SFR_AN, at 0xf3
   \   unsigned char volatile __sfr P0SEL
   \                     P0SEL:
   \   000000                DS 1

   \                                 In  segment SFR_AN, at 0xfd
   \   unsigned char volatile __sfr P0DIR
   \                     P0DIR:
   \   000000                DS 1
     19          #include "OSAL_Tasks.h"
     20          #include "ZDApp.h"
     21          #include "ZDObject.h"
     22          #include "ZDProfile.h"
     23          
     24          #include "hal_drivers.h"
     25          #include "hal_key.h"
     26          #if defined ( LCD_SUPPORTED )
     27            #include "hal_lcd.h"
     28          #endif
     29          #include "hal_led.h"
     30          #include "hal_uart.h"
     31          #include "Public.h"
     32          #include "Hall.h"
     33          
     34          /******************************************************************************************
     35           *                                       MACROS
     36           ******************************************************************************************/
     37          
     38          /******************************************************************************************
     39           *                                     CONSTANTS
     40           ******************************************************************************************/
     41          
     42          #if !defined( SERIAL_APP_PORT )
     43          #define SERIAL_APP_PORT  0
     44          #endif
     45          
     46          #if !defined( SERIAL_APP_BAUD )
     47          #define SERIAL_APP_BAUD  HAL_UART_BR_115200
     48          #endif
     49          
     50          // When the Rx buf space is less than this threshold, invoke the Rx callback.
     51          #if !defined( SERIAL_APP_THRESH )
     52          #define SERIAL_APP_THRESH  64
     53          #endif
     54          
     55          #if !defined( SERIAL_APP_RX_SZ )
     56          #define SERIAL_APP_RX_SZ  128
     57          #endif
     58          
     59          #if !defined( SERIAL_APP_TX_SZ )
     60          #define SERIAL_APP_TX_SZ  128
     61          #endif
     62          
     63          // Millisecs of idle time after a byte is received before invoking Rx callback.
     64          #if !defined( SERIAL_APP_IDLE )
     65          #define SERIAL_APP_IDLE  6
     66          #endif
     67          
     68          // Loopback Rx bytes to Tx for throughput testing.
     69          #if !defined( SERIAL_APP_LOOPBACK )
     70          #define SERIAL_APP_LOOPBACK  FALSE
     71          #endif
     72          
     73          // This is the max byte count per OTA message.
     74          #if !defined( SERIAL_APP_TX_MAX )
     75          #define SERIAL_APP_TX_MAX  20
     76          #endif
     77          
     78          #define SERIAL_APP_RSP_CNT  4
     79          
     80          #define ON  1
     81          #define OFF 0
     82          
     83          
     84          // This list should be filled with Application specific Cluster IDs.

   \                                 In  segment XDATA_ROM_C, align 1
     85          const cId_t SerialApp_ClusterList[SERIALAPP_MAX_CLUSTERS] =
   \                     SerialApp_ClusterList:
   \   000000   0100         DW 1
   \   000002   0200         DW 2
     86          {
     87            SERIALAPP_CLUSTERID1,
     88            SERIALAPP_CLUSTERID2
     89          };
     90          

   \                                 In  segment XDATA_ROM_C, align 1
     91          const SimpleDescriptionFormat_t SerialApp_SimpleDesc =
   \                     SerialApp_SimpleDesc:
   \   000000   0B           DB 11
   \   000001   050F         DW 3845
   \   000003   0100         DW 1
   \   000005   00           DB 0
   \   000006   02           DB 2
   \   000007   ....         DW SerialApp_ClusterList
   \   000009   02           DB 2
   \   00000A   ....         DW SerialApp_ClusterList
     92          {
     93            SERIALAPP_ENDPOINT,              //  int   Endpoint;
     94            SERIALAPP_PROFID,                //  uint16 AppProfId[2];
     95            SERIALAPP_DEVICEID,              //  uint16 AppDeviceId[2];
     96            SERIALAPP_DEVICE_VERSION,        //  int   AppDevVer:4;
     97            SERIALAPP_FLAGS,                 //  int   AppFlags:4;
     98            SERIALAPP_MAX_CLUSTERS,          //  byte  AppNumInClusters;
     99            (cId_t *)SerialApp_ClusterList,  //  byte *pAppInClusterList;
    100            SERIALAPP_MAX_CLUSTERS,          //  byte  AppNumOutClusters;
    101            (cId_t *)SerialApp_ClusterList   //  byte *pAppOutClusterList;
    102          };
    103          

   \                                 In  segment XDATA_ROM_C, align 1
    104          const endPointDesc_t SerialApp_epDesc =
   \                     SerialApp_epDesc:
   \   000000   0B           DB 11
   \   000001   ....         DW SerialApp_TaskID
   \   000003   ....         DW SerialApp_SimpleDesc
   \   000005   00           DB 0
    105          {
    106            SERIALAPP_ENDPOINT,
    107           &SerialApp_TaskID,
    108            (SimpleDescriptionFormat_t *)&SerialApp_SimpleDesc,
    109            noLatencyReqs
    110          };
    111          
    112          /******************************************************************************************
    113           *                                       TYPEDEFS
    114           ******************************************************************************************/
    115          
    116          /******************************************************************************************
    117           *                                   GLOBAL VARIABLES
    118           ******************************************************************************************/
    119          

   \                                 In  segment XDATA_Z, align 1, keep-with-next
    120          uint8 SerialApp_TaskID;    // Task ID for internal task/event processing.
   \                     SerialApp_TaskID:
   \   000000                DS 1
   \   000001                REQUIRE __INIT_XDATA_Z

   \                                 In  segment XDATA_Z, align 1, keep-with-next
    121          devStates_t  SampleApp_NwkState;
   \                     SampleApp_NwkState:
   \   000000                DS 1
   \   000001                REQUIRE __INIT_XDATA_Z

   \                                 In  segment XDATA_Z, align 1, keep-with-next
    122          static UART_Format UART0_Format;
   \                     UART0_Format:
   \   000000                DS 16
   \   000010                REQUIRE __INIT_XDATA_Z

   \                                 In  segment XDATA_Z, align 1, keep-with-next
    123          static UART_Format_End1 UART0_Format1;
   \                     UART0_Format1:
   \   000000                DS 7
   \   000007                REQUIRE __INIT_XDATA_Z
    124          /******************************************************************************************
    125           *                                  EXTERNAL VARIABLES
    126           *******************************************************************************************/
    127          
    128          /*******************************************************************************************
    129           *                                  EXTERNAL FUNCTIONS
    130           ********************************************************************************************/
    131          
    132          /*******************************************************************************************
    133           *                                   LOCAL VARIABLES
    134           ********************************************************************************************/
    135          

   \                                 In  segment XDATA_Z, align 1, keep-with-next
    136          static uint8 SerialApp_MsgID;
   \                     SerialApp_MsgID:
   \   000000                DS 1
   \   000001                REQUIRE __INIT_XDATA_Z

   \                                 In  segment XDATA_Z, align 1, keep-with-next
    137          static afAddrType_t SerialApp_TxAddr;
   \                     SerialApp_TxAddr:
   \   000000                DS 12
   \   00000C                REQUIRE __INIT_XDATA_Z

   \                                 In  segment XDATA_Z, align 1, keep-with-next
    138          static uint8 SerialApp_TxBuf[SERIAL_APP_TX_MAX];
   \                     SerialApp_TxBuf:
   \   000000                DS 20
   \   000014                REQUIRE __INIT_XDATA_Z

   \                                 In  segment XDATA_Z, align 1, keep-with-next
    139          static uint8 SerialApp_TxLen;
   \                     SerialApp_TxLen:
   \   000000                DS 1
   \   000001                REQUIRE __INIT_XDATA_Z

   \                                 In  segment XDATA_Z, align 1, keep-with-next
    140          static uint8 HallStatusOld;
   \                     HallStatusOld:
   \   000000                DS 1
   \   000001                REQUIRE __INIT_XDATA_Z

   \                                 In  segment XDATA_Z, align 1, keep-with-next
    141          static uint8 HallStatusNow;
   \                     HallStatusNow:
   \   000000                DS 1
   \   000001                REQUIRE __INIT_XDATA_Z
    142          /*******************************************************************************************
    143           *                                   LOCAL FUNCTIONS
    144           *******************************************************************************************/
    145          
    146          static void SerialApp_ProcessMSGCmd( afIncomingMSGPacket_t *pkt );
    147          void SerialApp_OTAData(afAddrType_t *txaddr,uint8 ID,void *p,uint8 len);
    148          static void SerialApp_CallBack(uint8 port, uint8 event);
    149          extern uint8 CheckSum(uint8 *data,uint8 len);
    150          extern void FLASHLED(uint8 led);
    151          extern void LED(uint8 led,uint8 operation);
    152          extern void ledInit(void);
    153          static void PhotoInit(void);
    154          
    155          /*****************************************************************************************
    156          *函数名称 ：霍尔传感器端口初始化函数				                                 
    157          *入口参数 ：无                                
    158          *返 回 值 ：无                                                                                
    159          *说    明 ：把P01设置为通用IO,输入模式                                                            
    160          *****************************************************************************************/
    161          
    162          static void PhotoInit(void) //P00  AD   P01   开关
    163          {
    164            P0SEL &= ~0x01;  //P01设置为通用IO
    165            P0DIR &= ~0x01;  //将P01设置为输入模式 
    166            if(HALL_GPIO == HIGH)
    167              HallStatusNow = HALL_NO;
    168            else
    169              HallStatusNow = HALL_YES;
    170          }
    171          /*****************************************************************************************
    172          *函数名称 ：串口初始化函数					                          
    173          *入口参数 ：task_id - OSAL分配的任务ID号		                          
    174          *返 回 值 ：无							                          
    175          *说    明 ：在OSAL初始化的时候被调用                             
    176          *****************************************************************************************/
    177          

   \                                 In  segment BANKED_CODE, align 1, keep-with-next
    178          void SerialApp_Init( uint8 task_id )
   \                     SerialApp_Init:
    179          { 
   \   000000   74F7         MOV     A,#-0x9
   \   000002   12....       LCALL   ?BANKED_ENTER_XDATA
   \   000005                ; Saved register size: 9
   \   000005                ; Auto size: 29
   \   000005   74E3         MOV     A,#-0x1d
   \   000007   12....       LCALL   ?ALLOC_XSTACK8
   \   00000A   E9           MOV     A,R1
   \   00000B   FE           MOV     R6,A
    180            
    181            halUARTCfg_t uartConfig;
    182          
    183            SerialApp_TaskID = task_id;
   \   00000C   90....       MOV     DPTR,#SerialApp_TaskID
   \   00000F   F0           MOVX    @DPTR,A
    184          
    185            afRegister( (endPointDesc_t *)&SerialApp_epDesc );
   \   000010                ; Setup parameters for call to function afRegister
   \   000010   7A..         MOV     R2,#SerialApp_epDesc & 0xff
   \   000012   7B..         MOV     R3,#(SerialApp_epDesc >> 8) & 0xff
   \   000014   12....       LCALL   ??afRegister?relay
    186          
    187            RegisterForKeys( task_id );
   \   000017                ; Setup parameters for call to function RegisterForKeys
   \   000017   EE           MOV     A,R6
   \   000018   F9           MOV     R1,A
   \   000019   12....       LCALL   ??RegisterForKeys?relay
    188            PhotoInit();
   \   00001C   53F3FE       ANL     0xf3,#0xfe
   \   00001F   53FDFE       ANL     0xfd,#0xfe
   \   000022   A280         MOV     C,0x80.0
   \   000024   B3           CPL     C
   \   000025   E4           CLR     A
   \   000026   33           RLC     A
   \   000027   90....       MOV     DPTR,#HallStatusNow
   \   00002A   F0           MOVX    @DPTR,A
    189            ledInit();
   \   00002B                ; Setup parameters for call to function ledInit
   \   00002B   12....       LCALL   ??ledInit?relay
    190            uartConfig.configured           = TRUE;              // 2x30 don't care - see uart driver.
   \   00002E   85..82       MOV     DPL,?XSP + 0
   \   000031   85..83       MOV     DPH,?XSP + 1
   \   000034   7401         MOV     A,#0x1
   \   000036   F0           MOVX    @DPTR,A
    191            uartConfig.baudRate             = SERIAL_APP_BAUD;
   \   000037   12....       LCALL   ?XSTACK_DISP0_8
   \   00003A   7404         MOV     A,#0x4
   \   00003C   F0           MOVX    @DPTR,A
    192            uartConfig.flowControl          = FALSE;
   \   00003D   7402         MOV     A,#0x2
   \   00003F   12....       LCALL   ?XSTACK_DISP0_8
   \   000042   E4           CLR     A
   \   000043   F0           MOVX    @DPTR,A
    193            uartConfig.flowControlThreshold = SERIAL_APP_THRESH; // 2x30 don't care - see uart driver.
   \   000044   7403         MOV     A,#0x3
   \   000046   12....       LCALL   ?XSTACK_DISP0_8
   \   000049   7440         MOV     A,#0x40
   \   00004B   F0           MOVX    @DPTR,A
   \   00004C   A3           INC     DPTR
   \   00004D   E4           CLR     A
   \   00004E   F0           MOVX    @DPTR,A
    194            uartConfig.rx.maxBufSize        = SERIAL_APP_RX_SZ;  // 2x30 don't care - see uart driver.
   \   00004F   740A         MOV     A,#0xa
   \   000051   12....       LCALL   ?XSTACK_DISP0_8
   \   000054   7480         MOV     A,#-0x80
   \   000056   F0           MOVX    @DPTR,A
   \   000057   A3           INC     DPTR
   \   000058   E4           CLR     A
   \   000059   F0           MOVX    @DPTR,A
    195            uartConfig.tx.maxBufSize        = SERIAL_APP_TX_SZ;  // 2x30 don't care - see uart driver.
   \   00005A   7412         MOV     A,#0x12
   \   00005C   12....       LCALL   ?XSTACK_DISP0_8
   \   00005F   7480         MOV     A,#-0x80
   \   000061   F0           MOVX    @DPTR,A
   \   000062   A3           INC     DPTR
   \   000063   E4           CLR     A
   \   000064   F0           MOVX    @DPTR,A
    196            uartConfig.idleTimeout          = SERIAL_APP_IDLE;   // 2x30 don't care - see uart driver.
   \   000065   7405         MOV     A,#0x5
   \   000067   12....       LCALL   ?XSTACK_DISP0_8
   \   00006A   7406         MOV     A,#0x6
   \   00006C   F0           MOVX    @DPTR,A
    197            uartConfig.intEnable            = TRUE;              // 2x30 don't care - see uart driver.
   \   00006D   7416         MOV     A,#0x16
   \   00006F   12....       LCALL   ?XSTACK_DISP0_8
   \   000072   7401         MOV     A,#0x1
   \   000074   F0           MOVX    @DPTR,A
    198            uartConfig.callBackFunc         = SerialApp_CallBack;
   \   000075   741B         MOV     A,#0x1b
   \   000077   12....       LCALL   ?XSTACK_DISP0_8
   \   00007A   74..         MOV     A,#??SerialApp_CallBack?relay & 0xff
   \   00007C   F0           MOVX    @DPTR,A
   \   00007D   A3           INC     DPTR
   \   00007E   74..         MOV     A,#(??SerialApp_CallBack?relay >> 8) & 0xff
   \   000080   F0           MOVX    @DPTR,A
    199            HalUARTOpen (SERIAL_APP_PORT, &uartConfig);
   \   000081                ; Setup parameters for call to function HalUARTOpen
   \   000081   85..82       MOV     DPL,?XSP + 0
   \   000084   85..83       MOV     DPH,?XSP + 1
   \   000087   AA82         MOV     R2,DPL
   \   000089   AB83         MOV     R3,DPH
   \   00008B   7900         MOV     R1,#0x0
   \   00008D   12....       LCALL   ??HalUARTOpen?relay
    200            
    201            //霍尔传感器心跳包初始化
    202            
    203            UART0_Format.Header   = '@';
   \   000090   90....       MOV     DPTR,#UART0_Format
   \   000093   7440         MOV     A,#0x40
   \   000095   F0           MOVX    @DPTR,A
    204            UART0_Format.Len      = 0x10;
   \   000096   A3           INC     DPTR
   \   000097   7410         MOV     A,#0x10
   \   000099   F0           MOVX    @DPTR,A
    205            UART0_Format.NodeSeq  = 0x01;
   \   00009A   A3           INC     DPTR
   \   00009B   7401         MOV     A,#0x1
   \   00009D   F0           MOVX    @DPTR,A
    206            UART0_Format.NodeID   = Hall;
   \   00009E   A3           INC     DPTR
   \   00009F   F0           MOVX    @DPTR,A
    207           
    208            //霍尔传感器无线消息初始化
    209            
    210            UART0_Format1.Header   = '@';
   \   0000A0   90....       MOV     DPTR,#UART0_Format1
   \   0000A3   7440         MOV     A,#0x40
   \   0000A5   F0           MOVX    @DPTR,A
    211            UART0_Format1.Len      = 0x07;
   \   0000A6   A3           INC     DPTR
   \   0000A7   7407         MOV     A,#0x7
   \   0000A9   F0           MOVX    @DPTR,A
    212            UART0_Format1.NodeSeq  = 0x01;
   \   0000AA   A3           INC     DPTR
   \   0000AB   7401         MOV     A,#0x1
   \   0000AD   F0           MOVX    @DPTR,A
    213            UART0_Format1.NodeID   = Hall;
   \   0000AE   A3           INC     DPTR
   \   0000AF   F0           MOVX    @DPTR,A
    214              
    215            SerialApp_TxAddr.addrMode =(afAddrMode_t)Addr16Bit;//发送地址初始化
   \   0000B0   90....       MOV     DPTR,#SerialApp_TxAddr + 8
   \   0000B3   04           INC     A
   \   0000B4   F0           MOVX    @DPTR,A
    216            SerialApp_TxAddr.endPoint = SERIALAPP_ENDPOINT;
   \   0000B5   A3           INC     DPTR
   \   0000B6   740B         MOV     A,#0xb
   \   0000B8   F0           MOVX    @DPTR,A
    217            SerialApp_TxAddr.addr.shortAddr = 0x0000;
   \   0000B9   90....       MOV     DPTR,#SerialApp_TxAddr
   \   0000BC   E4           CLR     A
   \   0000BD   F0           MOVX    @DPTR,A
   \   0000BE   A3           INC     DPTR
   \   0000BF   F0           MOVX    @DPTR,A
    218            TXPOWER = 0xf5;
   \   0000C0   906190       MOV     DPTR,#0x6190
   \   0000C3   74F5         MOV     A,#-0xb
   \   0000C5   F0           MOVX    @DPTR,A
    219          }
   \   0000C6   741D         MOV     A,#0x1d
   \   0000C8   12....       LCALL   ?DEALLOC_XSTACK8
   \   0000CB                REQUIRE ?Subroutine0
   \   0000CB                REQUIRE P0SEL
   \   0000CB                REQUIRE P0DIR
   \   0000CB                REQUIRE _A_P0
   \   0000CB                ; // Fall through to label ?Subroutine0

   \                                 In  segment BANKED_CODE, align 1, keep-with-next
   \                     ?Subroutine0:
   \   000000   7F01         MOV     R7,#0x1
   \   000002   02....       LJMP    ?BANKED_LEAVE_XDATA
    220          
    221          /*****************************************************************************************
    222          *函数名称 ：用户任务事件处理函数				                          
    223          *入口参数 ：task_id - OSAL分配的事件ID号                                      
    224          *           events  - 事件                                      
    225          *返 回 值 ：事件标志		                          
    226          *说    明 ：                                                                              
    227          *****************************************************************************************/
    228          

   \                                 In  segment BANKED_CODE, align 1, keep-with-next
    229          UINT16 SerialApp_ProcessEvent( uint8 task_id, UINT16 events )
   \                     SerialApp_ProcessEvent:
    230          { 
   \   000000   74F4         MOV     A,#-0xc
   \   000002   12....       LCALL   ?BANKED_ENTER_XDATA
   \   000005                ; Saved register size: 12
   \   000005                ; Auto size: 0
   \   000005   EA           MOV     A,R2
   \   000006   FE           MOV     R6,A
   \   000007   EB           MOV     A,R3
   \   000008   FF           MOV     R7,A
    231            uint8 num=0;
    232            (void)task_id;  // Intentionally unreferenced parameter
    233            
    234            if ( events & SYS_EVENT_MSG )
   \   000009   5480         ANL     A,#0x80
   \   00000B   707C         JNZ     ??SerialApp_ProcessEvent_0
    235            {
    236              afIncomingMSGPacket_t *MSGpkt;
    237          
    238              while ( (MSGpkt = (afIncomingMSGPacket_t *)osal_msg_receive( SerialApp_TaskID )) )
    239              {
    240                switch ( MSGpkt->hdr.event )
    241                {         
    242                case KEY_CHANGE:
    243                  //SerialApp_HandleKeys( ((keyChange_t *)MSGpkt)->state, ((keyChange_t *)MSGpkt)->keys );
    244                  break;
    245          
    246                case AF_INCOMING_MSG_CMD:
    247                  SerialApp_ProcessMSGCmd( MSGpkt );
    248                  break;
    249          
    250                case ZDO_STATE_CHANGE:
    251                    SampleApp_NwkState = (devStates_t)(MSGpkt->hdr.status);
    252                    if(SampleApp_NwkState == DEV_END_DEVICE) //判定当前设备类型
    253                    {
    254                      LED(1,ON);
    255                      osal_set_event(SerialApp_TaskID, PERIOD_EVT); //启动周期消息
    256                      osal_set_event(SerialApp_TaskID, HALL_READ_EVT); //启动光照检测
    257                    }
    258                  break;
    259                default:
    260                  break;
    261                }
    262          
    263                osal_msg_deallocate( (uint8 *)MSGpkt );
    264              }
    265          
    266              return ( events ^ SYS_EVENT_MSG );
    267            }
    268            
    269            if ( events & PERIOD_EVT ) //周期消息处理
   \   00000D   EE           MOV     A,R6
   \   00000E   5402         ANL     A,#0x2
   \   000010   7003         JNZ     $+5
   \   000012   02....       LJMP    ??SerialApp_ProcessEvent_1 & 0xFFFF
    270            {
    271              UART0_Format.Command = MSG_PERIOD;
   \   000015   90....       MOV     DPTR,#UART0_Format + 4
   \   000018   74AA         MOV     A,#-0x56
   \   00001A   F0           MOVX    @DPTR,A
    272              UART0_Format.Data[0] = 0x00;
   \   00001B   A3           INC     DPTR
   \   00001C   E4           CLR     A
   \   00001D   F0           MOVX    @DPTR,A
    273              
    274              
    275              num = CheckSum(&UART0_Format.Header,UART0_Format.Len);
    276              UART0_Format.Verify  = num; 
   \   00001E                ; Setup parameters for call to function CheckSum
   \   00001E   90....       MOV     DPTR,#UART0_Format + 1
   \   000021   E0           MOVX    A,@DPTR
   \   000022   F9           MOV     R1,A
   \   000023   7A..         MOV     R2,#UART0_Format & 0xff
   \   000025   7B..         MOV     R3,#(UART0_Format >> 8) & 0xff
   \   000027   12....       LCALL   ??CheckSum?relay
   \   00002A   E9           MOV     A,R1
   \   00002B   90....       MOV     DPTR,#UART0_Format + 15
   \   00002E   F0           MOVX    @DPTR,A
    277                
    278              SerialApp_OTAData(&SerialApp_TxAddr, SERIALAPP_CLUSTERID1, &UART0_Format, sizeof(UART_Format));
   \   00002F                ; Setup parameters for call to function SerialApp_OTAData
   \   00002F   75..10       MOV     ?V0 + 0,#0x10
   \   000032   78..         MOV     R0,#?V0 + 0
   \   000034   12....       LCALL   ?PUSH_XSTACK_I_ONE
   \   000037   7C..         MOV     R4,#UART0_Format & 0xff
   \   000039   7D..         MOV     R5,#(UART0_Format >> 8) & 0xff
   \   00003B   7901         MOV     R1,#0x1
   \   00003D   7A..         MOV     R2,#SerialApp_TxAddr & 0xff
   \   00003F   7B..         MOV     R3,#(SerialApp_TxAddr >> 8) & 0xff
   \   000041   12....       LCALL   ??SerialApp_OTAData?relay
   \   000044   7401         MOV     A,#0x1
   \   000046   12....       LCALL   ?DEALLOC_XSTACK8
    279              osal_start_timerEx(SerialApp_TaskID, PERIOD_EVT, 5000);
   \   000049                ; Setup parameters for call to function osal_start_timerEx
   \   000049   7C88         MOV     R4,#-0x78
   \   00004B   7D13         MOV     R5,#0x13
   \   00004D   7A02         MOV     R2,#0x2
   \   00004F   7B00         MOV     R3,#0x0
   \   000051   90....       MOV     DPTR,#SerialApp_TaskID
   \   000054   E0           MOVX    A,@DPTR
   \   000055   F9           MOV     R1,A
   \   000056   12....       LCALL   ??osal_start_timerEx?relay
    280              FLASHLED(2);
   \   000059                ; Setup parameters for call to function FLASHLED
   \   000059   7902         MOV     R1,#0x2
   \   00005B   12....       LCALL   ??FLASHLED?relay
    281              return ( events ^ PERIOD_EVT );
   \   00005E   EE           MOV     A,R6
   \   00005F   6402         XRL     A,#0x2
   \                     ??SerialApp_ProcessEvent_2:
   \   000061   FA           MOV     R2,A
   \   000062   EF           MOV     A,R7
   \                     ??SerialApp_ProcessEvent_3:
   \   000063   FB           MOV     R3,A
   \   000064   02....       LJMP    ??SerialApp_ProcessEvent_4 & 0xFFFF
    282            }
   \                     ??SerialApp_ProcessEvent_5:
   \   000067   A3           INC     DPTR
   \   000068   E0           MOVX    A,@DPTR
   \   000069   90....       MOV     DPTR,#SampleApp_NwkState
   \   00006C   F0           MOVX    @DPTR,A
   \   00006D   6406         XRL     A,#0x6
   \   00006F   7011         JNZ     ??CrossCallReturnLabel_1
   \   000071                ; Setup parameters for call to function LED
   \   000071   7A01         MOV     R2,#0x1
   \   000073   7901         MOV     R1,#0x1
   \   000075   12....       LCALL   ??LED?relay
   \   000078                ; Setup parameters for call to function osal_set_event
   \   000078   7A02         MOV     R2,#0x2
   \   00007A   12....       LCALL   ?Subroutine2 & 0xFFFF
   \                     ??CrossCallReturnLabel_0:
   \   00007D                ; Setup parameters for call to function osal_set_event
   \   00007D   7A04         MOV     R2,#0x4
   \   00007F   12....       LCALL   ?Subroutine2 & 0xFFFF
   \                     ??CrossCallReturnLabel_1:
   \   000082                ; Setup parameters for call to function osal_msg_deallocate
   \   000082   AA..         MOV     R2,?V0 + 0
   \   000084   AB..         MOV     R3,?V0 + 1
   \   000086   12....       LCALL   ??osal_msg_deallocate?relay
   \                     ??SerialApp_ProcessEvent_0:
   \   000089                ; Setup parameters for call to function osal_msg_receive
   \   000089   90....       MOV     DPTR,#SerialApp_TaskID
   \   00008C   E0           MOVX    A,@DPTR
   \   00008D   F9           MOV     R1,A
   \   00008E   12....       LCALL   ??osal_msg_receive?relay
   \   000091   8A..         MOV     ?V0 + 0,R2
   \   000093   8B..         MOV     ?V0 + 1,R3
   \   000095   EA           MOV     A,R2
   \   000096   45..         ORL     A,?V0 + 1
   \   000098   605B         JZ      ??SerialApp_ProcessEvent_6
   \   00009A   8A82         MOV     DPL,R2
   \   00009C   8B83         MOV     DPH,R3
   \   00009E   E0           MOVX    A,@DPTR
   \   00009F   24E6         ADD     A,#-0x1a
   \   0000A1   6006         JZ      ??SerialApp_ProcessEvent_7
   \   0000A3   2449         ADD     A,#0x49
   \   0000A5   60C0         JZ      ??SerialApp_ProcessEvent_5
   \   0000A7   80D9         SJMP    ??CrossCallReturnLabel_1
   \                     ??SerialApp_ProcessEvent_7:
   \   0000A9   A3           INC     DPTR
   \   0000AA   A3           INC     DPTR
   \   0000AB   A3           INC     DPTR
   \   0000AC   A3           INC     DPTR
   \   0000AD   E0           MOVX    A,@DPTR
   \   0000AE   6401         XRL     A,#0x1
   \   0000B0   7002         JNZ     ??SerialApp_ProcessEvent_8
   \   0000B2   A3           INC     DPTR
   \   0000B3   E0           MOVX    A,@DPTR
   \                     ??SerialApp_ProcessEvent_8:
   \   0000B4   70CC         JNZ     ??CrossCallReturnLabel_1
   \   0000B6   EA           MOV     A,R2
   \   0000B7   2422         ADD     A,#0x22
   \   0000B9   F582         MOV     DPL,A
   \   0000BB   EB           MOV     A,R3
   \   0000BC   3400         ADDC    A,#0x0
   \   0000BE   F583         MOV     DPH,A
   \   0000C0   E0           MOVX    A,@DPTR
   \   0000C1   F8           MOV     R0,A
   \   0000C2   A3           INC     DPTR
   \   0000C3   E0           MOVX    A,@DPTR
   \   0000C4   F9           MOV     R1,A
   \   0000C5   90....       MOV     DPTR,#??receiveData
   \   0000C8   E8           MOV     A,R0
   \   0000C9   F0           MOVX    @DPTR,A
   \   0000CA   A3           INC     DPTR
   \   0000CB   E9           MOV     A,R1
   \   0000CC   F0           MOVX    @DPTR,A
   \   0000CD                ; Setup parameters for call to function HalLedBlink
   \   0000CD   7CC8         MOV     R4,#-0x38
   \   0000CF   7D00         MOV     R5,#0x0
   \   0000D1   7B32         MOV     R3,#0x32
   \   0000D3   7A01         MOV     R2,#0x1
   \   0000D5   7901         MOV     R1,#0x1
   \   0000D7   12....       LCALL   ??HalLedBlink?relay
   \   0000DA                ; Setup parameters for call to function CheckSum
   \   0000DA   90....       MOV     DPTR,#??receiveData
   \   0000DD   E0           MOVX    A,@DPTR
   \   0000DE   F8           MOV     R0,A
   \   0000DF   A3           INC     DPTR
   \   0000E0   E0           MOVX    A,@DPTR
   \   0000E1   F583         MOV     DPH,A
   \   0000E3   8882         MOV     DPL,R0
   \   0000E5   A3           INC     DPTR
   \   0000E6   E0           MOVX    A,@DPTR
   \   0000E7   F9           MOV     R1,A
   \   0000E8   90....       MOV     DPTR,#??receiveData
   \   0000EB   E0           MOVX    A,@DPTR
   \   0000EC   FA           MOV     R2,A
   \   0000ED   A3           INC     DPTR
   \   0000EE   E0           MOVX    A,@DPTR
   \   0000EF   FB           MOV     R3,A
   \   0000F0   12....       LCALL   ??CheckSum?relay
   \   0000F3   808D         SJMP    ??CrossCallReturnLabel_1
   \                     ??SerialApp_ProcessEvent_6:
   \   0000F5   EE           MOV     A,R6
   \   0000F6   FA           MOV     R2,A
   \   0000F7   EF           MOV     A,R7
   \   0000F8   6480         XRL     A,#0x80
   \   0000FA   02....       LJMP    ??SerialApp_ProcessEvent_3 & 0xFFFF
    283            
    284            if ( events & SERIALAPP_SEND_EVT ) //发送RF消息
   \                     ??SerialApp_ProcessEvent_1:
   \   0000FD   EE           MOV     A,R6
   \   0000FE   A2E0         MOV     C,0xE0 /* A   */.0
   \   000100   5036         JNC     ??SerialApp_ProcessEvent_9
    285            { 
    286              num = CheckSum(&UART0_Format1.Header,UART0_Format1.Len);
    287              UART0_Format1.Verify  = num; 
   \   000102                ; Setup parameters for call to function CheckSum
   \   000102   90....       MOV     DPTR,#UART0_Format1 + 1
   \   000105   E0           MOVX    A,@DPTR
   \   000106   F9           MOV     R1,A
   \   000107   7A..         MOV     R2,#UART0_Format1 & 0xff
   \   000109   7B..         MOV     R3,#(UART0_Format1 >> 8) & 0xff
   \   00010B   12....       LCALL   ??CheckSum?relay
   \   00010E   E9           MOV     A,R1
   \   00010F   90....       MOV     DPTR,#UART0_Format1 + 6
   \   000112   F0           MOVX    @DPTR,A
    288              
    289              SerialApp_OTAData(&SerialApp_TxAddr,SERIALAPP_CLUSTERID1, &UART0_Format1, 7);
   \   000113                ; Setup parameters for call to function SerialApp_OTAData
   \   000113   75..07       MOV     ?V0 + 0,#0x7
   \   000116   78..         MOV     R0,#?V0 + 0
   \   000118   12....       LCALL   ?PUSH_XSTACK_I_ONE
   \   00011B   7C..         MOV     R4,#UART0_Format1 & 0xff
   \   00011D   7D..         MOV     R5,#(UART0_Format1 >> 8) & 0xff
   \   00011F   7901         MOV     R1,#0x1
   \   000121   7A..         MOV     R2,#SerialApp_TxAddr & 0xff
   \   000123   7B..         MOV     R3,#(SerialApp_TxAddr >> 8) & 0xff
   \   000125   12....       LCALL   ??SerialApp_OTAData?relay
   \   000128   7401         MOV     A,#0x1
   \   00012A   12....       LCALL   ?DEALLOC_XSTACK8
    290              FLASHLED(4);
   \   00012D                ; Setup parameters for call to function FLASHLED
   \   00012D   7904         MOV     R1,#0x4
   \   00012F   12....       LCALL   ??FLASHLED?relay
    291              return ( events ^ SERIALAPP_SEND_EVT );
   \   000132   EE           MOV     A,R6
   \   000133   6401         XRL     A,#0x1
   \   000135   02....       LJMP    ??SerialApp_ProcessEvent_2 & 0xFFFF
    292            }
    293          
    294            if ( events & HALL_READ_EVT )  //查看光敏电阻状态
   \                     ??SerialApp_ProcessEvent_9:
   \   000138   5404         ANL     A,#0x4
   \   00013A   6060         JZ      ??SerialApp_ProcessEvent_10
    295            {
    296              HallStatusOld = HallStatusNow;  //保存当前状态
   \   00013C   90....       MOV     DPTR,#HallStatusNow
   \   00013F   E0           MOVX    A,@DPTR
   \   000140   90....       MOV     DPTR,#HallStatusOld
   \   000143   F0           MOVX    @DPTR,A
    297              if(HALL_GPIO == HIGH)
   \   000144   A280         MOV     C,0x80.0
   \   000146   5006         JNC     ??SerialApp_ProcessEvent_11
    298              {
    299                HallStatusNow = HALL_NO;
   \   000148   90....       MOV     DPTR,#HallStatusNow
   \   00014B   E4           CLR     A
   \   00014C   8009         SJMP    ??SerialApp_ProcessEvent_12
    300              }
    301              else if(HALL_GPIO == LOW)
   \                     ??SerialApp_ProcessEvent_11:
   \   00014E   A280         MOV     C,0x80.0
   \   000150   4006         JC      ??SerialApp_ProcessEvent_13
    302              {
    303                HallStatusNow = HALL_YES;
   \   000152   90....       MOV     DPTR,#HallStatusNow
   \   000155   7401         MOV     A,#0x1
   \                     ??SerialApp_ProcessEvent_12:
   \   000157   F0           MOVX    @DPTR,A
    304              }
    305              
    306              if(HallStatusNow != HallStatusOld) //如果当前状态和上一个状态发生变化，发送消息给网关
   \                     ??SerialApp_ProcessEvent_13:
   \   000158   90....       MOV     DPTR,#HallStatusNow
   \   00015B   E0           MOVX    A,@DPTR
   \   00015C   F8           MOV     R0,A
   \   00015D   90....       MOV     DPTR,#HallStatusOld
   \   000160   E0           MOVX    A,@DPTR
   \   000161   68           XRL     A,R0
   \   000162   6022         JZ      ??CrossCallReturnLabel_2
    307              {
    308                UART0_Format1.Command = 0x01;
   \   000164   90....       MOV     DPTR,#UART0_Format1 + 4
   \   000167   7401         MOV     A,#0x1
   \   000169   F0           MOVX    @DPTR,A
    309                if(HallStatusNow == HALL_YES)
   \   00016A   90....       MOV     DPTR,#HallStatusNow
   \   00016D   E0           MOVX    A,@DPTR
   \   00016E   6401         XRL     A,#0x1
   \   000170   7007         JNZ     ??SerialApp_ProcessEvent_14
    310                {
    311                  UART0_Format1.Data[0] = 0x01;
   \   000172   90....       MOV     DPTR,#UART0_Format1 + 5
   \   000175   7401         MOV     A,#0x1
   \   000177   8007         SJMP    ??SerialApp_ProcessEvent_15
    312                  
    313                }
    314                else if(HallStatusNow == HALL_NO)
   \                     ??SerialApp_ProcessEvent_14:
   \   000179   E0           MOVX    A,@DPTR
   \   00017A   7005         JNZ     ??SerialApp_ProcessEvent_16
    315                {
    316                  UART0_Format1.Data[0] = 0x00;
   \   00017C   90....       MOV     DPTR,#UART0_Format1 + 5
   \   00017F   E4           CLR     A
   \                     ??SerialApp_ProcessEvent_15:
   \   000180   F0           MOVX    @DPTR,A
    317                       
    318                }
    319                osal_set_event(SerialApp_TaskID, SERIALAPP_SEND_EVT);
   \                     ??SerialApp_ProcessEvent_16:
   \   000181                ; Setup parameters for call to function osal_set_event
   \   000181   7A01         MOV     R2,#0x1
   \   000183   12....       LCALL   ?Subroutine2 & 0xFFFF
    320              }
    321              
    322              osal_start_timerEx(SerialApp_TaskID, HALL_READ_EVT, 200);
   \                     ??CrossCallReturnLabel_2:
   \   000186                ; Setup parameters for call to function osal_start_timerEx
   \   000186   7CC8         MOV     R4,#-0x38
   \   000188   7D00         MOV     R5,#0x0
   \   00018A   7A04         MOV     R2,#0x4
   \   00018C   7B00         MOV     R3,#0x0
   \   00018E   90....       MOV     DPTR,#SerialApp_TaskID
   \   000191   E0           MOVX    A,@DPTR
   \   000192   F9           MOV     R1,A
   \   000193   12....       LCALL   ??osal_start_timerEx?relay
    323              
    324              return ( events ^ HALL_READ_EVT );
   \   000196   EE           MOV     A,R6
   \   000197   6404         XRL     A,#0x4
   \   000199   02....       LJMP    ??SerialApp_ProcessEvent_2 & 0xFFFF
    325            }
    326          
    327            return ( 0 );  // Discard unknown events.
   \                     ??SerialApp_ProcessEvent_10:
   \   00019C   7A00         MOV     R2,#0x0
   \   00019E   7B00         MOV     R3,#0x0
   \                     ??SerialApp_ProcessEvent_4:
   \   0001A0                REQUIRE ?Subroutine1
   \   0001A0                REQUIRE _A_P0
   \   0001A0                ; // Fall through to label ?Subroutine1
    328          }

   \                                 In  segment BANKED_CODE, align 1, keep-with-next
   \                     ?Subroutine1:
   \   000000   7F04         MOV     R7,#0x4
   \   000002   02....       LJMP    ?BANKED_LEAVE_XDATA

   \                                 In  segment BANKED_CODE, align 1, keep-with-next
   \                     ?Subroutine2:
   \   000000   7B00         MOV     R3,#0x0
   \   000002   90....       MOV     DPTR,#SerialApp_TaskID
   \   000005   E0           MOVX    A,@DPTR
   \   000006   F9           MOV     R1,A
   \   000007   12....       LCALL   ??osal_set_event?relay
   \   00000A   22           RET
    329          
    330          /*****************************************************************************************
    331          *函数名称 ：消息处理函数				                                 
    332          *入口参数 ：pkt   - 指向接收到的无线消息数据包的指针                                 
    333          *返 回 值 ：TRUE  - 如果指针被应用并释放            
    334          *           FALSE - 其他	                                                          
    335          *说    明 ：处理收到的无线消息，并把消息通过串口发送给网关                               
    336          *****************************************************************************************/
    337          
    338          void SerialApp_ProcessMSGCmd( afIncomingMSGPacket_t *pkt )  //处理接收到的RF消息
    339          { 
    340            uint8 num=0;

   \                                 In  segment XDATA_Z, align 1, keep-with-next
    341            static UART_Format *receiveData;
   \                     ??receiveData:
   \   000000                DS 2
   \   000002                REQUIRE __INIT_XDATA_Z
    342            switch ( pkt->clusterId )
    343            {
    344             case SERIALAPP_CLUSTERID1:  //处理各个传感器节数据    
    345               receiveData = (UART_Format *)(pkt->cmd.Data);
    346               HalLedBlink(HAL_LED_1,1,50,200);
    347               
    348               num = CheckSum((uint8*)receiveData,receiveData->Len);
    349               
    350               if((receiveData->Header==0x40)&&(receiveData->Verify==num)) //校验包头包尾
    351               {
    352                 
    353               }
    354              break;
    355          
    356            case SERIALAPP_CLUSTERID2:
    357              break;
    358          
    359              default:
    360                break;
    361            }
    362          }
    363          
    364          /*****************************************************************************************
    365          *函数名称 ：无线消息发送函数				                                 
    366          *入口参数 ：*txaddr - 发送地址
    367          *           cID     - clusterID
    368          *           *p      - 发送数据包的地址
    369          *           len     - 发送数据包的长度
    370          *返 回 值 ：无                                                                                
    371          *说    明 ：把组好的数据包，通过无线发送出去                                                            
    372          *****************************************************************************************/
    373          
    374          

   \                                 In  segment BANKED_CODE, align 1, keep-with-next
    375          void SerialApp_OTAData(afAddrType_t *txaddr, uint8 cID, void *p, uint8 len) //发送函数
   \                     SerialApp_OTAData:
    376          {
   \   000000   74F6         MOV     A,#-0xa
   \   000002   12....       LCALL   ?BANKED_ENTER_XDATA
   \   000005                ; Saved register size: 10
   \   000005                ; Auto size: 0
   \   000005   E9           MOV     A,R1
   \   000006   FE           MOV     R6,A
   \   000007   740A         MOV     A,#0xa
   \   000009   12....       LCALL   ?XSTACK_DISP0_8
   \   00000C   E0           MOVX    A,@DPTR
   \   00000D   F9           MOV     R1,A
    377            if (afStatus_SUCCESS != AF_DataRequest(txaddr, //发送地址
    378                                                     (endPointDesc_t *)&SerialApp_epDesc, //endpoint描述
    379                                                      cID, //clusterID
    380                                                      len, p, //发送数据包的长度和地址
    381                                                      &SerialApp_MsgID, 0, AF_DEFAULT_RADIUS))
   \   00000E                ; Setup parameters for call to function AF_DataRequest
   \   00000E   75..1E       MOV     ?V0 + 0,#0x1e
   \   000011   78..         MOV     R0,#?V0 + 0
   \   000013   12....       LCALL   ?PUSH_XSTACK_I_ONE
   \   000016   75....       MOV     ?V0 + 0,#SerialApp_MsgID & 0xff
   \   000019   75....       MOV     ?V0 + 1,#(SerialApp_MsgID >> 8) & 0xff
   \   00001C   78..         MOV     R0,#?V0 + 0
   \   00001E   12....       LCALL   ?PUSH_XSTACK_I_TWO
   \   000021   8C..         MOV     ?V0 + 0,R4
   \   000023   8D..         MOV     ?V0 + 1,R5
   \   000025   78..         MOV     R0,#?V0 + 0
   \   000027   12....       LCALL   ?PUSH_XSTACK_I_TWO
   \   00002A   89..         MOV     ?V0 + 0,R1
   \   00002C   75..00       MOV     ?V0 + 1,#0x0
   \   00002F   78..         MOV     R0,#?V0 + 0
   \   000031   12....       LCALL   ?PUSH_XSTACK_I_TWO
   \   000034   8E..         MOV     ?V0 + 0,R6
   \   000036   78..         MOV     R0,#?V0 + 0
   \   000038   12....       LCALL   ?PUSH_XSTACK_I_TWO
   \   00003B   7900         MOV     R1,#0x0
   \   00003D   7C..         MOV     R4,#SerialApp_epDesc & 0xff
   \   00003F   7D..         MOV     R5,#(SerialApp_epDesc >> 8) & 0xff
   \   000041   12....       LCALL   ??AF_DataRequest?relay
   \   000044   7409         MOV     A,#0x9
   \   000046   12....       LCALL   ?DEALLOC_XSTACK8
   \   000049   E9           MOV     A,R1
   \   00004A   700D         JNZ     ??SerialApp_OTAData_0
    382            {
    383            }
    384            else
    385            {
    386              HalLedBlink(HAL_LED_1,1,50,200);
   \   00004C                ; Setup parameters for call to function HalLedBlink
   \   00004C   7CC8         MOV     R4,#-0x38
   \   00004E   7D00         MOV     R5,#0x0
   \   000050   7B32         MOV     R3,#0x32
   \   000052   7A01         MOV     R2,#0x1
   \   000054   7901         MOV     R1,#0x1
   \   000056   12....       LCALL   ??HalLedBlink?relay
    387            }
    388          }
   \                     ??SerialApp_OTAData_0:
   \   000059   7F02         MOV     R7,#0x2
   \   00005B   02....       LJMP    ?BANKED_LEAVE_XDATA
    389          
    390          /*****************************************************************************************
    391          *函数名称 ：串口回调函数				                                 
    392          *入口参数 ：port  -端口号
    393          *           event -事件号
    394          *返 回 值 ：无                                                                              
    395          *说    明 ：把串口消息通过无线发送出去                                                             
    396          *****************************************************************************************/
    397          

   \                                 In  segment BANKED_CODE, align 1, keep-with-next
    398          static void SerialApp_CallBack(uint8 port, uint8 event)
   \                     SerialApp_CallBack:
    399          {
   \   000000   74F7         MOV     A,#-0x9
   \   000002   12....       LCALL   ?BANKED_ENTER_XDATA
   \   000005                ; Saved register size: 9
   \   000005                ; Auto size: 0
   \   000005   EA           MOV     A,R2
   \   000006   FE           MOV     R6,A
    400            (void)port;
    401          
    402            if ((event & (HAL_UART_RX_FULL | HAL_UART_RX_ABOUT_FULL | HAL_UART_RX_TIMEOUT)) && !SerialApp_TxLen) //串口接收到数据包
   \   000007   7407         MOV     A,#0x7
   \   000009   5E           ANL     A,R6
   \   00000A   6018         JZ      ??SerialApp_CallBack_0
   \   00000C   90....       MOV     DPTR,#SerialApp_TxLen
   \   00000F   E0           MOVX    A,@DPTR
   \   000010   7012         JNZ     ??SerialApp_CallBack_0
    403            {
    404              SerialApp_TxLen = HalUARTRead(SERIAL_APP_PORT, SerialApp_TxBuf, SERIAL_APP_TX_MAX); //将串口数据读入buf
   \   000012                ; Setup parameters for call to function HalUARTRead
   \   000012   7C14         MOV     R4,#0x14
   \   000014   7D00         MOV     R5,#0x0
   \   000016   7A..         MOV     R2,#SerialApp_TxBuf & 0xff
   \   000018   7B..         MOV     R3,#(SerialApp_TxBuf >> 8) & 0xff
   \   00001A   7900         MOV     R1,#0x0
   \   00001C   12....       LCALL   ??HalUARTRead?relay
    405              SerialApp_TxLen = 0;  
   \   00001F   90....       MOV     DPTR,#SerialApp_TxLen
   \   000022   E4           CLR     A
   \   000023   F0           MOVX    @DPTR,A
    406            }
    407          }
   \                     ??SerialApp_CallBack_0:
   \   000024   02....       LJMP    ?Subroutine0 & 0xFFFF
    408          
    409          /*****************************************************************************************
    410          *函数名称 ：累加校验和函数				                                 
    411          *入口参数 ：*data - 数据包地址
    412                      len   - 数据包长度
    413          *返 回 值 ：sum   - 累加和                                                                                
    414          *说    明 ：对数据包进行累加和校验                                                             
    415          *****************************************************************************************/
    416          

   \                                 In  segment BANKED_CODE, align 1, keep-with-next
    417          uint8 CheckSum(uint8 *data,uint8 len)
   \                     CheckSum:
    418          {
   \   000000   74F4         MOV     A,#-0xc
   \   000002   12....       LCALL   ?BANKED_ENTER_XDATA
   \   000005                ; Saved register size: 12
   \   000005                ; Auto size: 0
   \   000005   E9           MOV     A,R1
   \   000006   FE           MOV     R6,A
    419            uint8 i,sum=0;
   \   000007   7900         MOV     R1,#0x0
    420            for(i=0;i<(len-1);i++)
   \   000009   7800         MOV     R0,#0x0
   \   00000B   800E         SJMP    ??CheckSum_0
    421            {
    422              sum+=data[i];
   \                     ??CheckSum_1:
   \   00000D   EA           MOV     A,R2
   \   00000E   25..         ADD     A,?V0 + 0
   \   000010   F582         MOV     DPL,A
   \   000012   EB           MOV     A,R3
   \   000013   3400         ADDC    A,#0x0
   \   000015   F583         MOV     DPH,A
   \   000017   E0           MOVX    A,@DPTR
   \   000018   29           ADD     A,R1
   \   000019   F9           MOV     R1,A
    423            }
   \   00001A   08           INC     R0
   \                     ??CheckSum_0:
   \   00001B   88..         MOV     ?V0 + 0,R0
   \   00001D   EE           MOV     A,R6
   \   00001E   24FF         ADD     A,#-0x1
   \   000020   FC           MOV     R4,A
   \   000021   E4           CLR     A
   \   000022   34FF         ADDC    A,#-0x1
   \   000024   FD           MOV     R5,A
   \   000025   C3           CLR     C
   \   000026   E5..         MOV     A,?V0 + 0
   \   000028   9C           SUBB    A,R4
   \   000029   E4           CLR     A
   \   00002A   9D           SUBB    A,R5
   \   00002B   A2D2         MOV     C,0xD0 /* PSW */.2
   \   00002D   65D0         XRL     A,PSW
   \   00002F   33           RLC     A
   \   000030   40DB         JC      ??CheckSum_1
    424            return sum;
   \   000032   02....       LJMP    ?Subroutine1 & 0xFFFF
    425          }

   \                                 In  segment BANK_RELAYS, align 1
   \                     ??SerialApp_Init?relay:
   \   000000   12....       LCALL   ?BDISPATCH
   \   000003   ......       DC24    SerialApp_Init

   \                                 In  segment BANK_RELAYS, align 1
   \                     ??SerialApp_ProcessEvent?relay:
   \   000000   12....       LCALL   ?BDISPATCH
   \   000003   ......       DC24    SerialApp_ProcessEvent

   \                                 In  segment BANK_RELAYS, align 1
   \                     ??SerialApp_OTAData?relay:
   \   000000   12....       LCALL   ?BDISPATCH
   \   000003   ......       DC24    SerialApp_OTAData

   \                                 In  segment BANK_RELAYS, align 1
   \                     ??SerialApp_CallBack?relay:
   \   000000   12....       LCALL   ?BDISPATCH
   \   000003   ......       DC24    SerialApp_CallBack

   \                                 In  segment BANK_RELAYS, align 1
   \                     ??CheckSum?relay:
   \   000000   12....       LCALL   ?BDISPATCH
   \   000003   ......       DC24    CheckSum
    426          /***********************************************/

   Maximum stack usage in bytes:

     Function                 ISTACK PSTACK XSTACK
     --------                 ------ ------ ------
     CheckSum                     0      0     24
     SerialApp_CallBack           0      0      9
       -> HalUARTRead             0      0     18
     SerialApp_Init               0      0     38
       -> afRegister              0      0     76
       -> RegisterForKeys         0      0     76
       -> ledInit                 0      0     76
       -> HalUARTOpen             0      0     76
     SerialApp_OTAData            0      0     32
       -> AF_DataRequest          0      0     38
       -> HalLedBlink             0      0     20
     SerialApp_ProcessEvent       0      0     13
       -> CheckSum                0      0     24
       -> SerialApp_OTAData       0      0     26
       -> osal_start_timerEx      0      0     24
       -> FLASHLED                0      0     24
       -> LED                     0      0     24
       -> osal_set_event          0      0     24
       -> osal_set_event          0      0     24
       -> osal_msg_deallocate     0      0     24
       -> osal_msg_receive        0      0     24
       -> HalLedBlink             0      0     24
       -> CheckSum                0      0     24
       -> CheckSum                0      0     24
       -> SerialApp_OTAData       0      0     26
       -> FLASHLED                0      0     24
       -> osal_set_event          0      0     24
       -> osal_start_timerEx      0      0     24


   Segment part sizes:

     Function/Label                 Bytes
     --------------                 -----
     _A_P0                             1
     P0SEL                             1
     P0DIR                             1
     SerialApp_ClusterList             4
     SerialApp_SimpleDesc             12
     SerialApp_epDesc                  6
     SerialApp_TaskID                  1
     SampleApp_NwkState                1
     UART0_Format                     16
     UART0_Format1                     7
     SerialApp_MsgID                   1
     SerialApp_TxAddr                 12
     SerialApp_TxBuf                  20
     SerialApp_TxLen                   1
     HallStatusOld                     1
     HallStatusNow                     1
     SerialApp_Init                  203
     ?Subroutine0                      5
     SerialApp_ProcessEvent          416
     ?Subroutine1                      5
     ?Subroutine2                     11
     receiveData                       2
     SerialApp_OTAData                94
     SerialApp_CallBack               39
     CheckSum                         53
     ??SerialApp_Init?relay            6
     ??SerialApp_ProcessEvent?relay    6
     ??SerialApp_OTAData?relay         6
     ??SerialApp_CallBack?relay        6
     ??CheckSum?relay                  6

 
 826 bytes in segment BANKED_CODE
  30 bytes in segment BANK_RELAYS
   3 bytes in segment SFR_AN
  22 bytes in segment XDATA_ROM_C
  63 bytes in segment XDATA_Z
 
 856 bytes of CODE  memory
  22 bytes of CONST memory
   0 bytes of DATA  memory (+ 3 bytes shared)
  63 bytes of XDATA memory

Errors: none
Warnings: none
