///////////////////////////////////////////////////////////////////////////////
//                                                                            /
// IAR C/C++ Compiler V8.10.1.10194/W32 for 8051        14/Jul/2015  15:41:10 /
// Copyright 2004-2011 IAR Systems AB.                                        /
//                                                                            /
//    Core               =  plain                                             /
//    Code model         =  banked                                            /
//    Data model         =  large                                             /
//    Calling convention =  xdata reentrant                                   /
//    Constant location  =  data_rom                                          /
//    Dptr setup         =  1,16                                              /
//    Source file        =  E:\SKZH_ZStack_V1.1\Projects\zstack\Utilities\Ser /
//                          ialApp\PWM\PWM.c                                  /
//    Command line       =  -f E:\SKZH_ZStack_V1.1\Projects\zstack\Utilities\ /
//                          SerialApp\CC2530DB\..\..\..\Tools\CC2530DB\f8wEnd /
//                          ev.cfg (-DCPU32MHZ -DROOT=__near_func             /
//                          -DMAC_CFG_TX_DATA_MAX=3 -DMAC_CFG_TX_MAX=6        /
//                          -DMAC_CFG_RX_MAX=3) -f E:\SKZH_ZStack_V1.1\Projec /
//                          ts\zstack\Utilities\SerialApp\CC2530DB\..\..\..\T /
//                          ools\CC2530DB\f8wConfig.cfg (-DZIGBEEPRO          /
//                          -DSECURE=0 -DZG_SECURE_DYNAMIC=0 -DREFLECTOR      /
//                          -DDEFAULT_CHANLIST=0x00000800                     /
//                          -DZDAPP_CONFIG_PAN_ID=0xAA41                      /
//                          -DNWK_START_DELAY=100 -DEXTENDED_JOINING_RANDOM_M /
//                          ASK=0x007F -DBEACON_REQUEST_DELAY=100             /
//                          -DBEACON_REQ_DELAY_MASK=0x00FF                    /
//                          -DLINK_STATUS_JITTER_MASK=0x007F                  /
//                          -DROUTE_EXPIRY_TIME=30 -DAPSC_ACK_WAIT_DURATION_P /
//                          OLLED=3000 -DNWK_INDIRECT_MSG_TIMEOUT=7           /
//                          -DMAX_RREQ_ENTRIES=8 -DAPSC_MAX_FRAME_RETRIES=3   /
//                          -DNWK_MAX_DATA_RETRIES=2                          /
//                          -DMAX_POLL_FAILURE_RETRIES=2 -DMAX_BCAST=9        /
//                          -DAPS_MAX_GROUPS=16 -DMAX_RTG_ENTRIES=40          /
//                          -DNWK_MAX_BINDING_ENTRIES=4                       /
//                          -DMAX_BINDING_CLUSTER_IDS=4                       /
//                          "-DDEFAULT_KEY={0x01, 0x03, 0x05, 0x07, 0x09,     /
//                          0x0B, 0x0D, 0x0F, 0x00, 0x02, 0x04, 0x06, 0x08,   /
//                          0x0A, 0x0C, 0x0D}" -DMAC_MAX_FRAME_SIZE=116       /
//                          -DZDNWKMGR_MIN_TRANSMISSIONS=20 "-DCONST=const    /
//                          __code" -DGENERIC=__generic                       /
//                          -DRFD_RCVC_ALWAYS_ON=FALSE -DPOLL_RATE=1000       /
//                          -DQUEUED_POLL_RATE=100 -DRESPONSE_POLL_RATE=100)  /
//                          -DREJOIN_POLL_RATE=440 E:\SKZH_ZStack_V1.1\Projec /
//                          ts\zstack\Utilities\SerialApp\PWM\PWM.c -D        /
//                          NWK_AUTO_POLL -D HAL_UART=TRUE -D                 /
//                          SERIAL_APP_PORT=0 -D xPOWER_SAVING -D NV_INIT -D  /
//                          PWM -lC E:\SKZH_ZStack_V1.1\Projects\zstack\Utili /
//                          ties\SerialApp\CC2530DB\PWM\List\ -lA             /
//                          E:\SKZH_ZStack_V1.1\Projects\zstack\Utilities\Ser /
//                          ialApp\CC2530DB\PWM\List\ --diag_suppress         /
//                          Pe001,Pa010 -o E:\SKZH_ZStack_V1.1\Projects\zstac /
//                          k\Utilities\SerialApp\CC2530DB\PWM\Obj\ -e        /
//                          --no_code_motion --debug --core=plain             /
//                          --dptr=16,1 --data_model=large                    /
//                          --code_model=banked --calling_convention=xdata_re /
//                          entrant --place_constants=data_rom                /
//                          --nr_virtual_regs 16 -I                           /
//                          E:\SKZH_ZStack_V1.1\Projects\zstack\Utilities\Ser /
//                          ialApp\CC2530DB\ -I E:\SKZH_ZStack_V1.1\Projects\ /
//                          zstack\Utilities\SerialApp\CC2530DB\..\PWM\ -I    /
//                          E:\SKZH_ZStack_V1.1\Projects\zstack\Utilities\Ser /
//                          ialApp\CC2530DB\..\Public\ -I                     /
//                          E:\SKZH_ZStack_V1.1\Projects\zstack\Utilities\Ser /
//                          ialApp\CC2530DB\..\..\..\ZMain\TI2530DB\ -I       /
//                          E:\SKZH_ZStack_V1.1\Projects\zstack\Utilities\Ser /
//                          ialApp\CC2530DB\..\..\..\..\..\Components\hal\inc /
//                          lude\ -I E:\SKZH_ZStack_V1.1\Projects\zstack\Util /
//                          ities\SerialApp\CC2530DB\..\..\..\..\..\Component /
//                          s\hal\target\CC2530EB\ -I                         /
//                          E:\SKZH_ZStack_V1.1\Projects\zstack\Utilities\Ser /
//                          ialApp\CC2530DB\..\..\..\..\..\Components\mac\inc /
//                          lude\ -I E:\SKZH_ZStack_V1.1\Projects\zstack\Util /
//                          ities\SerialApp\CC2530DB\..\..\..\..\..\Component /
//                          s\mac\high_level\ -I E:\SKZH_ZStack_V1.1\Projects /
//                          \zstack\Utilities\SerialApp\CC2530DB\..\..\..\..\ /
//                          ..\Components\mac\low_level\srf04\ -I             /
//                          E:\SKZH_ZStack_V1.1\Projects\zstack\Utilities\Ser /
//                          ialApp\CC2530DB\..\..\..\..\..\Components\mac\low /
//                          _level\srf04\single_chip\ -I                      /
//                          E:\SKZH_ZStack_V1.1\Projects\zstack\Utilities\Ser /
//                          ialApp\CC2530DB\..\..\..\..\..\Components\mt\ -I  /
//                          E:\SKZH_ZStack_V1.1\Projects\zstack\Utilities\Ser /
//                          ialApp\CC2530DB\..\..\..\..\..\Components\osal\in /
//                          clude\ -I E:\SKZH_ZStack_V1.1\Projects\zstack\Uti /
//                          lities\SerialApp\CC2530DB\..\..\..\..\..\Componen /
//                          ts\services\saddr\ -I E:\SKZH_ZStack_V1.1\Project /
//                          s\zstack\Utilities\SerialApp\CC2530DB\..\..\..\.. /
//                          \..\Components\services\sdata\ -I                 /
//                          E:\SKZH_ZStack_V1.1\Projects\zstack\Utilities\Ser /
//                          ialApp\CC2530DB\..\..\..\..\..\Components\stack\a /
//                          f\ -I E:\SKZH_ZStack_V1.1\Projects\zstack\Utiliti /
//                          es\SerialApp\CC2530DB\..\..\..\..\..\Components\s /
//                          tack\nwk\ -I E:\SKZH_ZStack_V1.1\Projects\zstack\ /
//                          Utilities\SerialApp\CC2530DB\..\..\..\..\..\Compo /
//                          nents\stack\sapi\ -I E:\SKZH_ZStack_V1.1\Projects /
//                          \zstack\Utilities\SerialApp\CC2530DB\..\..\..\..\ /
//                          ..\Components\stack\sec\ -I                       /
//                          E:\SKZH_ZStack_V1.1\Projects\zstack\Utilities\Ser /
//                          ialApp\CC2530DB\..\..\..\..\..\Components\stack\s /
//                          ys\ -I E:\SKZH_ZStack_V1.1\Projects\zstack\Utilit /
//                          ies\SerialApp\CC2530DB\..\..\..\..\..\Components\ /
//                          stack\zdo\ -I E:\SKZH_ZStack_V1.1\Projects\zstack /
//                          \Utilities\SerialApp\CC2530DB\..\..\..\..\..\Comp /
//                          onents\zmac\ -I E:\SKZH_ZStack_V1.1\Projects\zsta /
//                          ck\Utilities\SerialApp\CC2530DB\..\..\..\..\..\Co /
//                          mponents\zmac\f8w\ -Ohz                           /
//    List file          =  E:\SKZH_ZStack_V1.1\Projects\zstack\Utilities\Ser /
//                          ialApp\CC2530DB\PWM\List\PWM.s51                  /
//                                                                            /
//                                                                            /
///////////////////////////////////////////////////////////////////////////////

        NAME PWM

        RTMODEL "__SystemLibrary", "CLib"
        RTMODEL "__calling_convention", "xdata_reentrant"
        RTMODEL "__code_model", "banked"
        RTMODEL "__core", "plain"
        RTMODEL "__data_model", "large"
        RTMODEL "__dptr_size", "16"
        RTMODEL "__extended_stack", "disabled"
        RTMODEL "__location_for_constants", "data"
        RTMODEL "__number_of_dptrs", "1"
        RTMODEL "__rt_version", "1"

        RSEG DOVERLAY:DATA:NOROOT(0)
        RSEG IOVERLAY:IDATA:NOROOT(0)
        RSEG ISTACK:IDATA:NOROOT(0)
        RSEG PSTACK:XDATA:NOROOT(0)
        RSEG XSTACK:XDATA:NOROOT(0)

        EXTERN ?BANKED_ENTER_XDATA
        EXTERN ?BANKED_LEAVE_XDATA
        EXTERN ?BDISPATCH
        EXTERN ?BRET
        EXTERN ?DEALLOC_XSTACK8
        EXTERN ?PUSH_XSTACK_I_ONE
        EXTERN ?PUSH_XSTACK_I_TWO
        EXTERN ?V0
        EXTERN ?XSTACK_DISP0_8
        EXTERN __INIT_XDATA_Z

        FUNCTION ??CheckSum?relay,0203H
        PUBLIC ??Delayms?relay
        FUNCTION ??Delayms?relay,0203H
        PUBLIC ??InitPWM?relay
        FUNCTION ??InitPWM?relay,0203H
        PUBLIC ??InitT3?relay
        FUNCTION ??InitT3?relay,0203H
        PUBLIC ??SerialApp_Init?relay
        FUNCTION ??SerialApp_Init?relay,0203H
        PUBLIC ??SerialApp_OTAData?relay
        FUNCTION ??SerialApp_OTAData?relay,0203H
        PUBLIC ??SerialApp_ProcessEvent?relay
        FUNCTION ??SerialApp_ProcessEvent?relay,0203H
        FUNCTION ??SerialApp_ProcessMSGCmd?relay,0203H
        PUBWEAK `??T3_ISR??INTVEC 91`
        FUNCTION CheckSum,0203H
        ARGFRAME XSTACK, 12, STACK
        ARGFRAME IOVERLAY, 0, STATIC
        ARGFRAME DOVERLAY, 0, STATIC
        LOCFRAME XSTACK, 12, STACK
        PUBLIC Delayms
        FUNCTION Delayms,0203H
        ARGFRAME XSTACK, 0, STACK
        PUBLIC DutyRatio
        PUBWEAK IP0
        PUBWEAK IP1
        PUBLIC InitPWM
        FUNCTION InitPWM,0203H
        ARGFRAME XSTACK, 9, STACK
        ARGFRAME IOVERLAY, 0, STATIC
        ARGFRAME DOVERLAY, 0, STATIC
        PUBLIC InitT3
        FUNCTION InitT3,0201H
        ARGFRAME XSTACK, 9, STACK
        ARGFRAME IOVERLAY, 0, STATIC
        ARGFRAME DOVERLAY, 0, STATIC
        PUBWEAK P0DIR
        PUBWEAK P0SEL
        PUBLIC SampleApp_NwkState
        PUBLIC SerialApp_ClusterList
        PUBLIC SerialApp_Init
        FUNCTION SerialApp_Init,021203H
        ARGFRAME XSTACK, 0, STACK
        LOCFRAME XSTACK, 9, STACK
        PUBLIC SerialApp_OTAData
        FUNCTION SerialApp_OTAData,021203H
        ARGFRAME XSTACK, 13, STACK
        ARGFRAME IOVERLAY, 0, STATIC
        ARGFRAME DOVERLAY, 0, STATIC
        LOCFRAME XSTACK, 19, STACK
        PUBLIC SerialApp_ProcessEvent
        FUNCTION SerialApp_ProcessEvent,021203H
        ARGFRAME XSTACK, 0, STACK
        LOCFRAME XSTACK, 13, STACK
        FUNCTION SerialApp_ProcessMSGCmd,021203H
        ARGFRAME XSTACK, 12, STACK
        ARGFRAME IOVERLAY, 0, STATIC
        ARGFRAME DOVERLAY, 0, STATIC
        LOCFRAME XSTACK, 10, STACK
        PUBLIC SerialApp_SimpleDesc
        PUBLIC SerialApp_TaskID
        PUBLIC SerialApp_epDesc
        PUBWEAK T3CC0
        PUBWEAK T3CTL
        PUBLIC T3_ISR
        FUNCTION T3_ISR,0233H
        ARGFRAME XSTACK, 0, STACK
        LOCFRAME ISTACK, 5, STACK
        PUBWEAK _A_IEN0
        PUBWEAK _A_IEN1
        PUBWEAK _A_IRCON
        PUBWEAK _A_P0
        PUBLIC count
        PUBLIC counter
        PUBLIC fI
        PUBLIC fP
        PUBLIC fV
        PUBLIC lI
        PUBLIC lP
        PUBLIC lV
        
        CFI Names cfiNames0
        CFI StackFrame CFA_SP SP IDATA
        CFI StackFrame CFA_PSP16 PSP16 XDATA
        CFI StackFrame CFA_XSP16 XSP16 XDATA
        CFI StaticOverlayFrame CFA_IOVERLAY IOVERLAY
        CFI StaticOverlayFrame CFA_DOVERLAY DOVERLAY
        CFI Resource `PSW.CY`:1, `B.BR0`:1, `B.BR1`:1, `B.BR2`:1, `B.BR3`:1
        CFI Resource `B.BR4`:1, `B.BR5`:1, `B.BR6`:1, `B.BR7`:1, `VB.BR8`:1
        CFI Resource `VB.BR9`:1, `VB.BR10`:1, `VB.BR11`:1, `VB.BR12`:1
        CFI Resource `VB.BR13`:1, `VB.BR14`:1, `VB.BR15`:1, VB:8, B:8, A:8
        CFI Resource PSW:8, DPL0:8, DPH0:8, R0:8, R1:8, R2:8, R3:8, R4:8, R5:8
        CFI Resource R6:8, R7:8, V0:8, V1:8, V2:8, V3:8, V4:8, V5:8, V6:8, V7:8
        CFI Resource V8:8, V9:8, V10:8, V11:8, V12:8, V13:8, V14:8, V15:8, SP:8
        CFI Resource PSPH:8, PSPL:8, PSP16:16, XSPH:8, XSPL:8, XSP16:16
        CFI VirtualResource ?RET:24
        CFI Resource ?BRET_EXT:8
        CFI VirtualResource ?RET_HIGH:8, ?RET_LOW:8
        CFI ResourceParts PSP16 PSPH, PSPL
        CFI ResourceParts XSP16 XSPH, XSPL
        CFI ResourceParts ?RET ?BRET_EXT, ?RET_HIGH, ?RET_LOW
        CFI EndNames cfiNames0
        
        CFI Common cfiCommon0 Using cfiNames0
        CFI CodeAlign 1
        CFI DataAlign -1
        CFI ReturnAddress ?RET CODE
        CFI CFA_DOVERLAY Used
        CFI CFA_IOVERLAY Used
        CFI CFA_SP SP+-3
        CFI CFA_PSP16 PSP16+0
        CFI CFA_XSP16 XSP16+0
        CFI `PSW.CY` SameValue
        CFI `B.BR0` SameValue
        CFI `B.BR1` SameValue
        CFI `B.BR2` SameValue
        CFI `B.BR3` SameValue
        CFI `B.BR4` SameValue
        CFI `B.BR5` SameValue
        CFI `B.BR6` SameValue
        CFI `B.BR7` SameValue
        CFI `VB.BR8` SameValue
        CFI `VB.BR9` SameValue
        CFI `VB.BR10` SameValue
        CFI `VB.BR11` SameValue
        CFI `VB.BR12` SameValue
        CFI `VB.BR13` SameValue
        CFI `VB.BR14` SameValue
        CFI `VB.BR15` SameValue
        CFI VB SameValue
        CFI B Undefined
        CFI A Undefined
        CFI PSW SameValue
        CFI DPL0 SameValue
        CFI DPH0 SameValue
        CFI R0 Undefined
        CFI R1 Undefined
        CFI R2 Undefined
        CFI R3 Undefined
        CFI R4 Undefined
        CFI R5 Undefined
        CFI R6 SameValue
        CFI R7 SameValue
        CFI V0 SameValue
        CFI V1 SameValue
        CFI V2 SameValue
        CFI V3 SameValue
        CFI V4 SameValue
        CFI V5 SameValue
        CFI V6 SameValue
        CFI V7 SameValue
        CFI V8 SameValue
        CFI V9 SameValue
        CFI V10 SameValue
        CFI V11 SameValue
        CFI V12 SameValue
        CFI V13 SameValue
        CFI V14 SameValue
        CFI V15 SameValue
        CFI PSPH Undefined
        CFI PSPL Undefined
        CFI XSPH Undefined
        CFI XSPL Undefined
        CFI ?RET Concat
        CFI ?BRET_EXT Frame(CFA_SP, 3)
        CFI ?RET_HIGH Frame(CFA_SP, 2)
        CFI ?RET_LOW Frame(CFA_SP, 1)
        CFI EndCommon cfiCommon0
        
        
        CFI Common cfiCommon1 Using cfiNames0
        CFI CodeAlign 1
        CFI DataAlign -1
        CFI ReturnAddress ?RET CODE
        CFI CFA_DOVERLAY Used
        CFI CFA_IOVERLAY Used
        CFI CFA_SP SP+-2
        CFI CFA_PSP16 PSP16+0
        CFI CFA_XSP16 XSP16+0
        CFI `PSW.CY` SameValue
        CFI `B.BR0` SameValue
        CFI `B.BR1` SameValue
        CFI `B.BR2` SameValue
        CFI `B.BR3` SameValue
        CFI `B.BR4` SameValue
        CFI `B.BR5` SameValue
        CFI `B.BR6` SameValue
        CFI `B.BR7` SameValue
        CFI `VB.BR8` SameValue
        CFI `VB.BR9` SameValue
        CFI `VB.BR10` SameValue
        CFI `VB.BR11` SameValue
        CFI `VB.BR12` SameValue
        CFI `VB.BR13` SameValue
        CFI `VB.BR14` SameValue
        CFI `VB.BR15` SameValue
        CFI VB SameValue
        CFI B SameValue
        CFI A SameValue
        CFI PSW SameValue
        CFI DPL0 SameValue
        CFI DPH0 SameValue
        CFI R0 SameValue
        CFI R1 SameValue
        CFI R2 SameValue
        CFI R3 SameValue
        CFI R4 SameValue
        CFI R5 SameValue
        CFI R6 SameValue
        CFI R7 SameValue
        CFI V0 SameValue
        CFI V1 SameValue
        CFI V2 SameValue
        CFI V3 SameValue
        CFI V4 SameValue
        CFI V5 SameValue
        CFI V6 SameValue
        CFI V7 SameValue
        CFI V8 SameValue
        CFI V9 SameValue
        CFI V10 SameValue
        CFI V11 SameValue
        CFI V12 SameValue
        CFI V13 SameValue
        CFI V14 SameValue
        CFI V15 SameValue
        CFI PSPH Undefined
        CFI PSPL Undefined
        CFI XSPH Undefined
        CFI XSPL Undefined
        CFI ?RET Concat
        CFI ?BRET_EXT SameValue
        CFI ?RET_HIGH Frame(CFA_SP, 2)
        CFI ?RET_LOW Frame(CFA_SP, 1)
        CFI EndCommon cfiCommon1
        
ledInit             SYMBOL "ledInit"
afRegister          SYMBOL "afRegister"
RegisterForKeys     SYMBOL "RegisterForKeys"
osal_start_timerEx  SYMBOL "osal_start_timerEx"
FLASHLED            SYMBOL "FLASHLED"
osal_set_event      SYMBOL "osal_set_event"
LED                 SYMBOL "LED"
osal_msg_deallocate SYMBOL "osal_msg_deallocate"
osal_msg_receive    SYMBOL "osal_msg_receive"
HalLedBlink         SYMBOL "HalLedBlink"
AF_DataRequest      SYMBOL "AF_DataRequest"
??AF_DataRequest?relay SYMBOL "?relay", AF_DataRequest
??FLASHLED?relay    SYMBOL "?relay", FLASHLED
??HalLedBlink?relay SYMBOL "?relay", HalLedBlink
??LED?relay         SYMBOL "?relay", LED
??RegisterForKeys?relay SYMBOL "?relay", RegisterForKeys
??afRegister?relay  SYMBOL "?relay", afRegister
??ledInit?relay     SYMBOL "?relay", ledInit
??osal_msg_deallocate?relay SYMBOL "?relay", osal_msg_deallocate
??osal_msg_receive?relay SYMBOL "?relay", osal_msg_receive
??osal_set_event?relay SYMBOL "?relay", osal_set_event
??osal_start_timerEx?relay SYMBOL "?relay", osal_start_timerEx
Delayms             SYMBOL "Delayms"
??Delayms?relay     SYMBOL "?relay", Delayms
InitPWM             SYMBOL "InitPWM"
??InitPWM?relay     SYMBOL "?relay", InitPWM
InitT3              SYMBOL "InitT3"
??InitT3?relay      SYMBOL "?relay", InitT3
SerialApp_Init      SYMBOL "SerialApp_Init"
??SerialApp_Init?relay SYMBOL "?relay", SerialApp_Init
SerialApp_OTAData   SYMBOL "SerialApp_OTAData"
??SerialApp_OTAData?relay SYMBOL "?relay", SerialApp_OTAData
SerialApp_ProcessEvent SYMBOL "SerialApp_ProcessEvent"
??SerialApp_ProcessEvent?relay SYMBOL "?relay", SerialApp_ProcessEvent
T3_ISR              SYMBOL "T3_ISR"
`??T3_ISR??INTVEC 91` SYMBOL "??INTVEC 91", T3_ISR

        EXTERN ledInit
        FUNCTION ledInit,0202H
        ARGFRAME ISTACK, 0, STACK
        ARGFRAME PSTACK, 0, STACK
        ARGFRAME XSTACK, 9, STACK
        ARGFRAME IOVERLAY, 0, STATIC
        ARGFRAME DOVERLAY, 0, STATIC
        EXTERN afRegister
        FUNCTION afRegister,0202H
        ARGFRAME ISTACK, 0, STACK
        ARGFRAME PSTACK, 0, STACK
        ARGFRAME XSTACK, 9, STACK
        ARGFRAME IOVERLAY, 0, STATIC
        ARGFRAME DOVERLAY, 0, STATIC
        EXTERN RegisterForKeys
        FUNCTION RegisterForKeys,0202H
        ARGFRAME ISTACK, 0, STACK
        ARGFRAME PSTACK, 0, STACK
        ARGFRAME XSTACK, 9, STACK
        ARGFRAME IOVERLAY, 0, STATIC
        ARGFRAME DOVERLAY, 0, STATIC
        EXTERN osal_start_timerEx
        FUNCTION osal_start_timerEx,0202H
        ARGFRAME ISTACK, 0, STACK
        ARGFRAME PSTACK, 0, STACK
        ARGFRAME XSTACK, 12, STACK
        ARGFRAME IOVERLAY, 0, STATIC
        ARGFRAME DOVERLAY, 0, STATIC
        EXTERN FLASHLED
        FUNCTION FLASHLED,0202H
        ARGFRAME ISTACK, 0, STACK
        ARGFRAME PSTACK, 0, STACK
        ARGFRAME XSTACK, 12, STACK
        ARGFRAME IOVERLAY, 0, STATIC
        ARGFRAME DOVERLAY, 0, STATIC
        EXTERN osal_set_event
        FUNCTION osal_set_event,0202H
        ARGFRAME ISTACK, 0, STACK
        ARGFRAME PSTACK, 0, STACK
        ARGFRAME XSTACK, 12, STACK
        ARGFRAME IOVERLAY, 0, STATIC
        ARGFRAME DOVERLAY, 0, STATIC
        EXTERN LED
        FUNCTION LED,0202H
        ARGFRAME ISTACK, 0, STACK
        ARGFRAME PSTACK, 0, STACK
        ARGFRAME XSTACK, 12, STACK
        ARGFRAME IOVERLAY, 0, STATIC
        ARGFRAME DOVERLAY, 0, STATIC
        EXTERN osal_msg_deallocate
        FUNCTION osal_msg_deallocate,0202H
        ARGFRAME ISTACK, 0, STACK
        ARGFRAME PSTACK, 0, STACK
        ARGFRAME XSTACK, 12, STACK
        ARGFRAME IOVERLAY, 0, STATIC
        ARGFRAME DOVERLAY, 0, STATIC
        EXTERN osal_msg_receive
        FUNCTION osal_msg_receive,0202H
        ARGFRAME ISTACK, 0, STACK
        ARGFRAME PSTACK, 0, STACK
        ARGFRAME XSTACK, 12, STACK
        ARGFRAME IOVERLAY, 0, STATIC
        ARGFRAME DOVERLAY, 0, STATIC
        EXTERN HalLedBlink
        FUNCTION HalLedBlink,0202H
        ARGFRAME ISTACK, 0, STACK
        ARGFRAME PSTACK, 0, STACK
        ARGFRAME XSTACK, 10, STACK
        ARGFRAME IOVERLAY, 0, STATIC
        ARGFRAME DOVERLAY, 0, STATIC
        EXTERN AF_DataRequest
        FUNCTION AF_DataRequest,0202H
        ARGFRAME ISTACK, 0, STACK
        ARGFRAME PSTACK, 0, STACK
        ARGFRAME XSTACK, 19, STACK
        ARGFRAME IOVERLAY, 0, STATIC
        ARGFRAME DOVERLAY, 0, STATIC
        EXTERN ??AF_DataRequest?relay
        FUNCTION ??AF_DataRequest?relay,00H
        EXTERN ??FLASHLED?relay
        FUNCTION ??FLASHLED?relay,00H
        EXTERN ??HalLedBlink?relay
        FUNCTION ??HalLedBlink?relay,00H
        EXTERN ??LED?relay
        FUNCTION ??LED?relay,00H
        EXTERN ??RegisterForKeys?relay
        FUNCTION ??RegisterForKeys?relay,00H
        EXTERN ??afRegister?relay
        FUNCTION ??afRegister?relay,00H
        EXTERN ??ledInit?relay
        FUNCTION ??ledInit?relay,00H
        EXTERN ??osal_msg_deallocate?relay
        FUNCTION ??osal_msg_deallocate?relay,00H
        EXTERN ??osal_msg_receive?relay
        FUNCTION ??osal_msg_receive?relay,00H
        EXTERN ??osal_set_event?relay
        FUNCTION ??osal_set_event?relay,00H
        EXTERN ??osal_start_timerEx?relay
        FUNCTION ??osal_start_timerEx?relay,00H

// E:\SKZH_ZStack_V1.1\Projects\zstack\Utilities\SerialApp\PWM\PWM.c
//    1 /**************************************Copyright(c)****************************************
//    2 * 　　　　　　　　            青岛山科智汇信息科技有限公司 　　　　　 　　                *
//    3 * 　　　　　　　　　　　　　                          　　　　　　　　　　　　　　　　　　*
//    4 * 　　　　　　　　　                  www.iotsk.com 　　　　　　　　　                  　*
//    5 * 　　　　　　　　　　　　　　　　　　　　　　　　　　　                          　　　　*
//    6 *----------------------------------------File Info----------------------------------------*
//    7 *文 件 名 ：PWM.c　　　　　　                                                             *
//    8 *修改日期 ：2013.11.21  　　　　　　　　　　　　　　                                      *
//    9 *版 本 号 ：V1.0　　　　　　　　　　　　　　　　　                                        *
//   10 *描    述 ：PWM模块的终端节点控制程序                                                     *
//   11 *                                                                                         *
//   12 ******************************************************************************************/
//   13 /******************************************************************************************
//   14 *                                       INCLUDES                                          *
//   15 ******************************************************************************************/
//   16 
//   17 #include "AF.h"
//   18 #include "OnBoard.h"

        ASEGN SFR_AN:DATA:NOROOT,080H
// union <unnamed> volatile __sfr _A_P0
_A_P0:
        DATA8
        DS 1

        ASEGN SFR_AN:DATA:NOROOT,0a8H
// union <unnamed> volatile __sfr _A_IEN0
_A_IEN0:
        DATA8
        DS 1

        ASEGN SFR_AN:DATA:NOROOT,0a9H
// unsigned char volatile __sfr IP0
IP0:
        DATA8
        DS 1

        ASEGN SFR_AN:DATA:NOROOT,0b8H
// union <unnamed> volatile __sfr _A_IEN1
_A_IEN1:
        DATA8
        DS 1

        ASEGN SFR_AN:DATA:NOROOT,0b9H
// unsigned char volatile __sfr IP1
IP1:
        DATA8
        DS 1

        ASEGN SFR_AN:DATA:NOROOT,0c0H
// union <unnamed> volatile __sfr _A_IRCON
_A_IRCON:
        DATA8
        DS 1

        ASEGN SFR_AN:DATA:NOROOT,0cbH
// unsigned char volatile __sfr T3CTL
T3CTL:
        DATA8
        DS 1

        ASEGN SFR_AN:DATA:NOROOT,0cdH
// unsigned char volatile __sfr T3CC0
T3CC0:
        DATA8
        DS 1

        ASEGN SFR_AN:DATA:NOROOT,0f3H
// unsigned char volatile __sfr P0SEL
P0SEL:
        DATA8
        DS 1

        ASEGN SFR_AN:DATA:NOROOT,0fdH
// unsigned char volatile __sfr P0DIR
P0DIR:
        DATA8
        DS 1
//   19 #include "OSAL_Tasks.h"
//   20 #include "ZDApp.h"
//   21 #include "ZDObject.h"
//   22 #include "ZDProfile.h"
//   23 
//   24 #include "hal_drivers.h"
//   25 #include "hal_key.h"
//   26 #if defined ( LCD_SUPPORTED )
//   27 #include "hal_lcd.h"
//   28 #endif
//   29 #include "hal_led.h"
//   30 #include "hal_uart.h"
//   31 #include "Public.h"
//   32 #include "PWM.h"
//   33 #include "hal_timer.h"
//   34 #include <stdio.h>			// for <printf>
//   35 #include <ioCC2530.h>
//   36 
//   37 /*****************************************************************************************
//   38  *                                         MACROS
//   39  *****************************************************************************************/
//   40 #define uint unsigned int
//   41 #define uchar unsigned char
//   42 
//   43 #define PWM_OUT1()          st(P0DIR|=0x08;P0_3=1;) 
//   44 #define PWM_OUT0()          st(P0DIR|=0x08;P0_3=0;)
//   45 
//   46 #define INIT_IOS()    	    st(P1DIR&=~0x80;P1DIR|=0x78;)   
//   47 
//   48 /******************************************************************************************
//   49  *                                        CONSTANTS
//   50  ******************************************************************************************/

        RSEG XDATA_Z:XDATA:NOROOT(0)
        DATA8
//   51 unsigned char DutyRatio=0;
DutyRatio:
        DS 1
        REQUIRE __INIT_XDATA_Z

        RSEG XDATA_Z:XDATA:NOROOT(0)
        DATA8
//   52 unsigned char counter=0;
counter:
        DS 1
        REQUIRE __INIT_XDATA_Z

        RSEG XDATA_Z:XDATA:NOROOT(0)
        DATA32
//   53 float fP,fV,fI;
fP:
        DS 4
        REQUIRE __INIT_XDATA_Z

        RSEG XDATA_Z:XDATA:NOROOT(0)
        DATA32
fV:
        DS 4
        REQUIRE __INIT_XDATA_Z

        RSEG XDATA_Z:XDATA:NOROOT(0)
        DATA32
fI:
        DS 4
        REQUIRE __INIT_XDATA_Z

        RSEG XDATA_Z:XDATA:NOROOT(0)
        DATA32
//   54 long  lP,lV,lI;
lP:
        DS 4
        REQUIRE __INIT_XDATA_Z

        RSEG XDATA_Z:XDATA:NOROOT(0)
        DATA32
lV:
        DS 4
        REQUIRE __INIT_XDATA_Z

        RSEG XDATA_Z:XDATA:NOROOT(0)
        DATA32
lI:
        DS 4
        REQUIRE __INIT_XDATA_Z

        RSEG XDATA_Z:XDATA:NOROOT(0)
        DATA16
//   55 uint count;//用于定时器计数	
count:
        DS 2
        REQUIRE __INIT_XDATA_Z
//   56 
//   57 
//   58 #if !defined( SERIAL_APP_PORT )
//   59 #define SERIAL_APP_PORT  0
//   60 #endif
//   61 
//   62 #if !defined( SERIAL_APP_BAUD )
//   63 #define SERIAL_APP_BAUD  HAL_UART_BR_115200
//   64 #endif
//   65 
//   66 // When the Rx buf space is less than this threshold, invoke the Rx callback.
//   67 #if !defined( SERIAL_APP_THRESH )
//   68 #define SERIAL_APP_THRESH  64
//   69 #endif
//   70 
//   71 #if !defined( SERIAL_APP_RX_SZ )
//   72 #define SERIAL_APP_RX_SZ  128
//   73 #endif
//   74 
//   75 #if !defined( SERIAL_APP_TX_SZ )
//   76 #define SERIAL_APP_TX_SZ  128
//   77 #endif
//   78 
//   79 // Millisecs of idle time after a byte is received before invoking Rx callback.
//   80 #if !defined( SERIAL_APP_IDLE )
//   81 #define SERIAL_APP_IDLE  6
//   82 #endif
//   83 
//   84 // Loopback Rx bytes to Tx for throughput testing.
//   85 #if !defined( SERIAL_APP_LOOPBACK )
//   86 #define SERIAL_APP_LOOPBACK  FALSE
//   87 #endif
//   88 
//   89 // This is the max byte count per OTA message.
//   90 #if !defined( SERIAL_APP_TX_MAX )
//   91 #define SERIAL_APP_TX_MAX  20
//   92 #endif
//   93 
//   94 #define SERIAL_APP_RSP_CNT  4
//   95 
//   96 // This list should be filled with Application specific Cluster IDs.

        RSEG XDATA_ROM_C:CONST:REORDER:NOROOT(0)
        DATA32
//   97 const cId_t SerialApp_ClusterList[SERIALAPP_MAX_CLUSTERS] =
SerialApp_ClusterList:
        DATA16
        DW 1
        DW 2
//   98 {
//   99   SERIALAPP_CLUSTERID1,
//  100   SERIALAPP_CLUSTERID2
//  101 };
//  102 

        RSEG XDATA_ROM_C:CONST:REORDER:NOROOT(0)
        DATA8
//  103 const SimpleDescriptionFormat_t SerialApp_SimpleDesc =
SerialApp_SimpleDesc:
        DB 11
        DATA16
        DW 3845
        DW 1
        DATA8
        DB 0
        DB 2
        DATA16
        DW SerialApp_ClusterList
        DATA8
        DB 2
        DATA16
        DW SerialApp_ClusterList
//  104 {
//  105   SERIALAPP_ENDPOINT,              //  int   Endpoint;
//  106   SERIALAPP_PROFID,                //  uint16 AppProfId[2];
//  107   SERIALAPP_DEVICEID,              //  uint16 AppDeviceId[2];
//  108   SERIALAPP_DEVICE_VERSION,        //  int   AppDevVer:4;
//  109   SERIALAPP_FLAGS,                 //  int   AppFlags:4;
//  110   SERIALAPP_MAX_CLUSTERS,          //  byte  AppNumInClusters;
//  111   (cId_t *)SerialApp_ClusterList,  //  byte *pAppInClusterList;
//  112   SERIALAPP_MAX_CLUSTERS,          //  byte  AppNumOutClusters;
//  113   (cId_t *)SerialApp_ClusterList   //  byte *pAppOutClusterList;
//  114 };
//  115 

        RSEG XDATA_ROM_C:CONST:REORDER:NOROOT(0)
        DATA8
//  116 const endPointDesc_t SerialApp_epDesc =
SerialApp_epDesc:
        DB 11
        DATA16
        DW SerialApp_TaskID
        DW SerialApp_SimpleDesc
        DATA8
        DB 0
//  117 {
//  118   SERIALAPP_ENDPOINT,
//  119  &SerialApp_TaskID,
//  120   (SimpleDescriptionFormat_t *)&SerialApp_SimpleDesc,
//  121   noLatencyReqs
//  122 };
//  123 
//  124 /******************************************************************************************
//  125  *                                       TYPEDEFS
//  126  ******************************************************************************************/
//  127 
//  128 /*******************************************************************************************
//  129  *                                  GLOBAL VARIABLES
//  130  *******************************************************************************************/
//  131 

        RSEG XDATA_Z:XDATA:NOROOT(0)
        DATA8
//  132 uint8 SerialApp_TaskID;    // Task ID for internal task/event processing.
SerialApp_TaskID:
        DS 1
        REQUIRE __INIT_XDATA_Z

        RSEG XDATA_Z:XDATA:NOROOT(0)
        DATA8
//  133 devStates_t  SampleApp_NwkState;
SampleApp_NwkState:
        DS 1
        REQUIRE __INIT_XDATA_Z

        RSEG XDATA_Z:XDATA:NOROOT(0)
        DATA8
//  134 static UART_Format UART0_Format;
UART0_Format:
        DS 16
        REQUIRE __INIT_XDATA_Z
//  135 
//  136 /*******************************************************************************************
//  137  *                                 EXTERNAL VARIABLES
//  138  ******************************************************************************************/
//  139 
//  140 /*******************************************************************************************
//  141  *                                 EXTERNAL FUNCTIONS
//  142  *******************************************************************************************/
//  143 
//  144 /********************************************************************************************
//  145  *                                   LOCAL VARIABLES
//  146  ********************************************************************************************/
//  147 

        RSEG XDATA_Z:XDATA:NOROOT(0)
        DATA8
//  148 static uint8 SerialApp_MsgID;
SerialApp_MsgID:
        DS 1
        REQUIRE __INIT_XDATA_Z

        RSEG XDATA_Z:XDATA:NOROOT(0)
        DATA8
//  149 static afAddrType_t SerialApp_TxAddr;
SerialApp_TxAddr:
        DS 12
        REQUIRE __INIT_XDATA_Z

        RSEG XDATA_Z:XDATA:NOROOT(0)
        DATA8
//  150 static uint8 SerialApp_TxBuf[SERIAL_APP_TX_MAX];
SerialApp_TxBuf:
        DS 20
        REQUIRE __INIT_XDATA_Z

        RSEG XDATA_Z:XDATA:NOROOT(0)
        DATA8
//  151 static uint8 SerialApp_TxLen;
SerialApp_TxLen:
        DS 1
        REQUIRE __INIT_XDATA_Z
//  152 
//  153 /********************************************************************************************
//  154  *                                  LOCAL FUNCTIONS
//  155  *********************************************************************************************/
//  156 
//  157 static void SerialApp_ProcessMSGCmd( afIncomingMSGPacket_t *pkt );
//  158 void SerialApp_OTAData(afAddrType_t *txaddr,uint8 ID,void *p,uint8 len);
//  159 static uint8 CheckSum(uint8 *data,uint8 len);
//  160 void Delayms(uint xms);		//延时函数
//  161 void InitPWM(void);		//初始化P1口
//  162 void InitT3();                  //初始化定时器T3
//  163 extern void ledInit(void);
//  164 extern void FLASHLED(uint8 FLASHnum);
//  165 extern void LED(uint8 led,uint8 operation);
//  166 
//  167 /*****************************************************************************************
//  168 *函数名称 ：延时函数				                                 
//  169 *入口参数 ：xms - 需要延时的毫秒数                                
//  170 *返 回 值 ：无                                                                               
//  171 *说    明 ：                                                             
//  172 *****************************************************************************************/
//  173 

        RSEG BANKED_CODE:CODE:NOROOT(0)
//  174 void Delayms(uint xms)   //i=xms 即延时i毫秒
Delayms:
        CFI Block cfiBlock0 Using cfiCommon0
        CFI Function Delayms
        CODE
//  175 {
        ; Saved register size: 0
        ; Auto size: 0
//  176  uint i,j;
//  177  for(i=xms;i>0;i--)
        MOV     A,R2
        MOV     R0,A
        MOV     A,R3
        SJMP    ??Delayms_0
//  178    for(j=587;j>0;j--);
??Delayms_1:
        MOV     A,R0
        ADD     A,#-0x1
        DEC     R0
        MOV     A,R1
        ADDC    A,#-0x1
??Delayms_0:
        MOV     R1,A
        MOV     A,R0
        ORL     A,R1
        JNZ     ??Delayms_1
//  179 } 
        LJMP    ?BRET
        CFI EndBlock cfiBlock0
//  180 /*****************************************************************************************
//  181 *函数名称 ：PWM初始化函数				                                 
//  182 *入口参数 ：无                                
//  183 *返 回 值 ：无                                                                               
//  184 *说    明 ：无                                                             
//  185 *****************************************************************************************/

        RSEG BANKED_CODE:CODE:NOROOT(0)
//  186 void InitPWM(void)
InitPWM:
        CFI Block cfiBlock1 Using cfiCommon0
        CFI Function InitPWM
        CODE
//  187 {
        ; Saved register size: 0
        ; Auto size: 0
//  188 	P0DIR |= 0x08; //P0_3义为输出
        ORL     0xfd,#0x8
//  189 	P0SEL &= ~0x08;
        ANL     0xf3,#0xf7
//  190 }
        LJMP    ?BRET
        CFI EndBlock cfiBlock1
        REQUIRE P0DIR
        REQUIRE P0SEL
//  191 
//  192 /*****************************************************************************************
//  193 *函数名称 ：定时器3初始化函数				                                 
//  194 *入口参数 ：无                                
//  195 *返 回 值 ：无                                                                                
//  196 *说    明 ：对定时器3进行初始化                                                            
//  197 *****************************************************************************************/
//  198 

        RSEG BANKED_CODE:CODE:NOROOT(0)
//  199 void InitT3()
InitT3:
        CFI Block cfiBlock2 Using cfiCommon0
        CFI Function InitT3
        CODE
//  200 {     
        ; Saved register size: 0
        ; Auto size: 0
//  201   
//  202       IP0 |=0X08;
        ORL     0xa9,#0x8
//  203       IP1 |=0X08;
        ORL     0xb9,#0x8
//  204   
//  205       T3CTL |= 0x08 ;             //开溢出中断     
        ORL     0xcb,#0x8
//  206       T3IE = 1;                   //开总中断和T3中断
        SETB    0xb8.3
//  207       T3CTL|=0XE0;               //128分频,128/16000000*N=0.5S,N=65200
        ORL     0xcb,#0xe0
//  208       T3CTL &= ~0X02;            //自动重装 00－>0xff  65200/256=254(次)
        ANL     0xcb,#0xfd
//  209       T3CC0 = 0x02;
        MOV     0xcd,#0x2
//  210       T3CTL |=0X10;//启动
        ORL     0xcb,#0x10
//  211       EA = 1; 
        SETB    0xa8.7
//  212 }
        LJMP    ?BRET
        CFI EndBlock cfiBlock2
        REQUIRE IP0
        REQUIRE IP1
        REQUIRE T3CTL
        REQUIRE _A_IEN1
        REQUIRE T3CC0
        REQUIRE _A_IEN0
//  213 
//  214 
//  215 /*****************************************************************************************
//  216 *函数名称 ：串口初始化函数					                          
//  217 *入口参数 ：task_id - OSAL分配的任务ID号		                          
//  218 *返 回 值 ：无							                          
//  219 *说    明 ：在OSAL初始化的时候被调用                             
//  220 *****************************************************************************************/
//  221 

        RSEG BANKED_CODE:CODE:NOROOT(0)
//  222 void SerialApp_Init( uint8 task_id )
SerialApp_Init:
        CFI Block cfiBlock3 Using cfiCommon0
        CFI Function SerialApp_Init
        CODE
//  223 { 
        FUNCALL SerialApp_Init, InitPWM
        LOCFRAME ISTACK, 0, STACK
        LOCFRAME PSTACK, 0, STACK
        LOCFRAME XSTACK, 9, STACK
        LOCFRAME IOVERLAY, 0, STATIC
        LOCFRAME DOVERLAY, 0, STATIC
        ARGFRAME ISTACK, 0, STACK
        ARGFRAME PSTACK, 0, STACK
        ARGFRAME XSTACK, 9, STACK
        ARGFRAME IOVERLAY, 0, STATIC
        ARGFRAME DOVERLAY, 0, STATIC
        FUNCALL SerialApp_Init, InitT3
        LOCFRAME ISTACK, 0, STACK
        LOCFRAME PSTACK, 0, STACK
        LOCFRAME XSTACK, 9, STACK
        LOCFRAME IOVERLAY, 0, STATIC
        LOCFRAME DOVERLAY, 0, STATIC
        ARGFRAME ISTACK, 0, STACK
        ARGFRAME PSTACK, 0, STACK
        ARGFRAME XSTACK, 9, STACK
        ARGFRAME IOVERLAY, 0, STATIC
        ARGFRAME DOVERLAY, 0, STATIC
        FUNCALL SerialApp_Init, ledInit
        LOCFRAME ISTACK, 0, STACK
        LOCFRAME PSTACK, 0, STACK
        LOCFRAME XSTACK, 9, STACK
        LOCFRAME IOVERLAY, 0, STATIC
        LOCFRAME DOVERLAY, 0, STATIC
        ARGFRAME ISTACK, 0, STACK
        ARGFRAME PSTACK, 0, STACK
        ARGFRAME XSTACK, 9, STACK
        ARGFRAME IOVERLAY, 0, STATIC
        ARGFRAME DOVERLAY, 0, STATIC
        FUNCALL SerialApp_Init, afRegister
        LOCFRAME ISTACK, 0, STACK
        LOCFRAME PSTACK, 0, STACK
        LOCFRAME XSTACK, 9, STACK
        LOCFRAME IOVERLAY, 0, STATIC
        LOCFRAME DOVERLAY, 0, STATIC
        ARGFRAME ISTACK, 0, STACK
        ARGFRAME PSTACK, 0, STACK
        ARGFRAME XSTACK, 9, STACK
        ARGFRAME IOVERLAY, 0, STATIC
        ARGFRAME DOVERLAY, 0, STATIC
        FUNCALL SerialApp_Init, RegisterForKeys
        LOCFRAME ISTACK, 0, STACK
        LOCFRAME PSTACK, 0, STACK
        LOCFRAME XSTACK, 9, STACK
        LOCFRAME IOVERLAY, 0, STATIC
        LOCFRAME DOVERLAY, 0, STATIC
        ARGFRAME ISTACK, 0, STACK
        ARGFRAME PSTACK, 0, STACK
        ARGFRAME XSTACK, 9, STACK
        ARGFRAME IOVERLAY, 0, STATIC
        ARGFRAME DOVERLAY, 0, STATIC
        MOV     A,#-0x9
        LCALL   ?BANKED_ENTER_XDATA
        CFI DPH0 load(1, XDATA, add(CFA_XSP16, literal(-1)))
        CFI DPL0 load(1, XDATA, add(CFA_XSP16, literal(-2)))
        CFI ?BRET_EXT load(1, XDATA, add(CFA_XSP16, literal(-3)))
        CFI ?RET_HIGH load(1, XDATA, add(CFA_XSP16, literal(-4)))
        CFI ?RET_LOW load(1, XDATA, add(CFA_XSP16, literal(-5)))
        CFI R7 load(1, XDATA, add(CFA_XSP16, literal(-6)))
        CFI V0 load(1, XDATA, add(CFA_XSP16, literal(-7)))
        CFI VB load(1, XDATA, add(CFA_XSP16, literal(-8)))
        CFI R6 load(1, XDATA, add(CFA_XSP16, literal(-9)))
        CFI CFA_SP SP+0
        CFI CFA_XSP16 add(XSP16, 9)
        ; Saved register size: 9
        ; Auto size: 0
        MOV     A,R1
        MOV     R6,A
//  224     
//  225     InitPWM();		
        ; Setup parameters for call to function InitPWM
        LCALL   ??InitPWM?relay
//  226     InitT3();   
        ; Setup parameters for call to function InitT3
        LCALL   ??InitT3?relay
//  227     ledInit();
        ; Setup parameters for call to function ledInit
        LCALL   ??ledInit?relay
//  228     
//  229     halUARTCfg_t uartConfig;
//  230   
//  231     SerialApp_TaskID = task_id;
        MOV     A,R6
        MOV     DPTR,#SerialApp_TaskID
        MOVX    @DPTR,A
//  232   
//  233     afRegister( (endPointDesc_t *)&SerialApp_epDesc );
        ; Setup parameters for call to function afRegister
        MOV     R2,#SerialApp_epDesc & 0xff
        MOV     R3,#(SerialApp_epDesc >> 8) & 0xff
        LCALL   ??afRegister?relay
//  234   
//  235     RegisterForKeys( task_id );
        ; Setup parameters for call to function RegisterForKeys
        MOV     A,R6
        MOV     R1,A
        LCALL   ??RegisterForKeys?relay
//  236   
//  237   
//  238     UART0_Format.Header   = '@';
        MOV     DPTR,#UART0_Format
        MOV     A,#0x40
        MOVX    @DPTR,A
//  239     UART0_Format.Len      = 0x10;
        INC     DPTR
        MOV     A,#0x10
        LCALL   ?Subroutine4 & 0xFFFF
//  240     UART0_Format.NodeSeq  = 0x01;
//  241     UART0_Format.NodeID   = LED_PWM;
//  242   
//  243   
//  244     SerialApp_TxAddr.addrMode =(afAddrMode_t)Addr16Bit;//发送地址初始化
??CrossCallReturnLabel_4:
        MOV     DPTR,#SerialApp_TxAddr + 8
        MOV     A,#0x2
        MOVX    @DPTR,A
//  245     SerialApp_TxAddr.endPoint = SERIALAPP_ENDPOINT;
        INC     DPTR
        MOV     A,#0xb
        MOVX    @DPTR,A
//  246     SerialApp_TxAddr.addr.shortAddr = 0x0000;
        MOV     DPTR,#SerialApp_TxAddr
        CLR     A
        MOVX    @DPTR,A
        INC     DPTR
        MOVX    @DPTR,A
//  247     TXPOWER = 0xf5;
        MOV     DPTR,#0x6190
        MOV     A,#-0xb
        MOVX    @DPTR,A
        CFI EndBlock cfiBlock3
//  248  }
        REQUIRE ?Subroutine0
        ; // Fall through to label ?Subroutine0

        RSEG BANKED_CODE:CODE:NOROOT(0)
?Subroutine0:
        CFI Block cfiBlock4 Using cfiCommon0
        CFI NoFunction
        CFI CFA_SP SP+0
        CFI CFA_XSP16 add(XSP16, 9)
        CFI VB load(1, XDATA, add(CFA_XSP16, literal(-8)))
        CFI DPL0 load(1, XDATA, add(CFA_XSP16, literal(-2)))
        CFI DPH0 load(1, XDATA, add(CFA_XSP16, literal(-1)))
        CFI R6 load(1, XDATA, add(CFA_XSP16, literal(-9)))
        CFI R7 load(1, XDATA, add(CFA_XSP16, literal(-6)))
        CFI V0 load(1, XDATA, add(CFA_XSP16, literal(-7)))
        CFI ?BRET_EXT load(1, XDATA, add(CFA_XSP16, literal(-3)))
        CFI ?RET_HIGH load(1, XDATA, add(CFA_XSP16, literal(-4)))
        CFI ?RET_LOW load(1, XDATA, add(CFA_XSP16, literal(-5)))
        MOV     R7,#0x1
        LJMP    ?BANKED_LEAVE_XDATA
        CFI EndBlock cfiBlock4
//  249 
//  250 /*****************************************************************************************
//  251 *函数名称 ：用户任务事件处理函数				                          
//  252 *入口参数 ：task_id - OSAL分配的事件ID号                                      
//  253 *           events  - 事件                                      
//  254 *返 回 值 ：事件标志		                          
//  255 *说    明 ：                                                                              
//  256 *****************************************************************************************/
//  257 

        RSEG BANKED_CODE:CODE:NOROOT(0)
//  258 UINT16 SerialApp_ProcessEvent( uint8 task_id, UINT16 events )
SerialApp_ProcessEvent:
        CFI Block cfiBlock5 Using cfiCommon0
        CFI Function SerialApp_ProcessEvent
        CODE
//  259 { 
        FUNCALL SerialApp_ProcessEvent, CheckSum
        LOCFRAME ISTACK, 0, STACK
        LOCFRAME PSTACK, 0, STACK
        LOCFRAME XSTACK, 12, STACK
        LOCFRAME IOVERLAY, 0, STATIC
        LOCFRAME DOVERLAY, 0, STATIC
        ARGFRAME ISTACK, 0, STACK
        ARGFRAME PSTACK, 0, STACK
        ARGFRAME XSTACK, 12, STACK
        ARGFRAME IOVERLAY, 0, STATIC
        ARGFRAME DOVERLAY, 0, STATIC
        FUNCALL SerialApp_ProcessEvent, SerialApp_OTAData
        LOCFRAME ISTACK, 0, STACK
        LOCFRAME PSTACK, 0, STACK
        LOCFRAME XSTACK, 13, STACK
        LOCFRAME IOVERLAY, 0, STATIC
        LOCFRAME DOVERLAY, 0, STATIC
        ARGFRAME ISTACK, 0, STACK
        ARGFRAME PSTACK, 0, STACK
        ARGFRAME XSTACK, 13, STACK
        ARGFRAME IOVERLAY, 0, STATIC
        ARGFRAME DOVERLAY, 0, STATIC
        FUNCALL SerialApp_ProcessEvent, osal_start_timerEx
        LOCFRAME ISTACK, 0, STACK
        LOCFRAME PSTACK, 0, STACK
        LOCFRAME XSTACK, 12, STACK
        LOCFRAME IOVERLAY, 0, STATIC
        LOCFRAME DOVERLAY, 0, STATIC
        ARGFRAME ISTACK, 0, STACK
        ARGFRAME PSTACK, 0, STACK
        ARGFRAME XSTACK, 12, STACK
        ARGFRAME IOVERLAY, 0, STATIC
        ARGFRAME DOVERLAY, 0, STATIC
        FUNCALL SerialApp_ProcessEvent, FLASHLED
        LOCFRAME ISTACK, 0, STACK
        LOCFRAME PSTACK, 0, STACK
        LOCFRAME XSTACK, 12, STACK
        LOCFRAME IOVERLAY, 0, STATIC
        LOCFRAME DOVERLAY, 0, STATIC
        ARGFRAME ISTACK, 0, STACK
        ARGFRAME PSTACK, 0, STACK
        ARGFRAME XSTACK, 12, STACK
        ARGFRAME IOVERLAY, 0, STATIC
        ARGFRAME DOVERLAY, 0, STATIC
        FUNCALL SerialApp_ProcessEvent, osal_set_event
        LOCFRAME ISTACK, 0, STACK
        LOCFRAME PSTACK, 0, STACK
        LOCFRAME XSTACK, 12, STACK
        LOCFRAME IOVERLAY, 0, STATIC
        LOCFRAME DOVERLAY, 0, STATIC
        ARGFRAME ISTACK, 0, STACK
        ARGFRAME PSTACK, 0, STACK
        ARGFRAME XSTACK, 12, STACK
        ARGFRAME IOVERLAY, 0, STATIC
        ARGFRAME DOVERLAY, 0, STATIC
        FUNCALL SerialApp_ProcessEvent, LED
        LOCFRAME ISTACK, 0, STACK
        LOCFRAME PSTACK, 0, STACK
        LOCFRAME XSTACK, 12, STACK
        LOCFRAME IOVERLAY, 0, STATIC
        LOCFRAME DOVERLAY, 0, STATIC
        ARGFRAME ISTACK, 0, STACK
        ARGFRAME PSTACK, 0, STACK
        ARGFRAME XSTACK, 12, STACK
        ARGFRAME IOVERLAY, 0, STATIC
        ARGFRAME DOVERLAY, 0, STATIC
        FUNCALL SerialApp_ProcessEvent, osal_msg_deallocate
        LOCFRAME ISTACK, 0, STACK
        LOCFRAME PSTACK, 0, STACK
        LOCFRAME XSTACK, 12, STACK
        LOCFRAME IOVERLAY, 0, STATIC
        LOCFRAME DOVERLAY, 0, STATIC
        ARGFRAME ISTACK, 0, STACK
        ARGFRAME PSTACK, 0, STACK
        ARGFRAME XSTACK, 12, STACK
        ARGFRAME IOVERLAY, 0, STATIC
        ARGFRAME DOVERLAY, 0, STATIC
        FUNCALL SerialApp_ProcessEvent, osal_msg_receive
        LOCFRAME ISTACK, 0, STACK
        LOCFRAME PSTACK, 0, STACK
        LOCFRAME XSTACK, 12, STACK
        LOCFRAME IOVERLAY, 0, STATIC
        LOCFRAME DOVERLAY, 0, STATIC
        ARGFRAME ISTACK, 0, STACK
        ARGFRAME PSTACK, 0, STACK
        ARGFRAME XSTACK, 12, STACK
        ARGFRAME IOVERLAY, 0, STATIC
        ARGFRAME DOVERLAY, 0, STATIC
        FUNCALL SerialApp_ProcessEvent, SerialApp_ProcessMSGCmd
        LOCFRAME ISTACK, 0, STACK
        LOCFRAME PSTACK, 0, STACK
        LOCFRAME XSTACK, 12, STACK
        LOCFRAME IOVERLAY, 0, STATIC
        LOCFRAME DOVERLAY, 0, STATIC
        ARGFRAME ISTACK, 0, STACK
        ARGFRAME PSTACK, 0, STACK
        ARGFRAME XSTACK, 12, STACK
        ARGFRAME IOVERLAY, 0, STATIC
        ARGFRAME DOVERLAY, 0, STATIC
        FUNCALL SerialApp_ProcessEvent, FLASHLED
        LOCFRAME ISTACK, 0, STACK
        LOCFRAME PSTACK, 0, STACK
        LOCFRAME XSTACK, 12, STACK
        LOCFRAME IOVERLAY, 0, STATIC
        LOCFRAME DOVERLAY, 0, STATIC
        ARGFRAME ISTACK, 0, STACK
        ARGFRAME PSTACK, 0, STACK
        ARGFRAME XSTACK, 12, STACK
        ARGFRAME IOVERLAY, 0, STATIC
        ARGFRAME DOVERLAY, 0, STATIC
        FUNCALL SerialApp_ProcessEvent, CheckSum
        LOCFRAME ISTACK, 0, STACK
        LOCFRAME PSTACK, 0, STACK
        LOCFRAME XSTACK, 12, STACK
        LOCFRAME IOVERLAY, 0, STATIC
        LOCFRAME DOVERLAY, 0, STATIC
        ARGFRAME ISTACK, 0, STACK
        ARGFRAME PSTACK, 0, STACK
        ARGFRAME XSTACK, 12, STACK
        ARGFRAME IOVERLAY, 0, STATIC
        ARGFRAME DOVERLAY, 0, STATIC
        FUNCALL SerialApp_ProcessEvent, SerialApp_OTAData
        LOCFRAME ISTACK, 0, STACK
        LOCFRAME PSTACK, 0, STACK
        LOCFRAME XSTACK, 13, STACK
        LOCFRAME IOVERLAY, 0, STATIC
        LOCFRAME DOVERLAY, 0, STATIC
        ARGFRAME ISTACK, 0, STACK
        ARGFRAME PSTACK, 0, STACK
        ARGFRAME XSTACK, 13, STACK
        ARGFRAME IOVERLAY, 0, STATIC
        ARGFRAME DOVERLAY, 0, STATIC
        FUNCALL SerialApp_ProcessEvent, FLASHLED
        LOCFRAME ISTACK, 0, STACK
        LOCFRAME PSTACK, 0, STACK
        LOCFRAME XSTACK, 12, STACK
        LOCFRAME IOVERLAY, 0, STATIC
        LOCFRAME DOVERLAY, 0, STATIC
        ARGFRAME ISTACK, 0, STACK
        ARGFRAME PSTACK, 0, STACK
        ARGFRAME XSTACK, 12, STACK
        ARGFRAME IOVERLAY, 0, STATIC
        ARGFRAME DOVERLAY, 0, STATIC
        MOV     A,#-0xc
        LCALL   ?BANKED_ENTER_XDATA
        CFI DPH0 load(1, XDATA, add(CFA_XSP16, literal(-1)))
        CFI DPL0 load(1, XDATA, add(CFA_XSP16, literal(-2)))
        CFI ?BRET_EXT load(1, XDATA, add(CFA_XSP16, literal(-3)))
        CFI ?RET_HIGH load(1, XDATA, add(CFA_XSP16, literal(-4)))
        CFI ?RET_LOW load(1, XDATA, add(CFA_XSP16, literal(-5)))
        CFI R7 load(1, XDATA, add(CFA_XSP16, literal(-6)))
        CFI V3 load(1, XDATA, add(CFA_XSP16, literal(-7)))
        CFI V2 load(1, XDATA, add(CFA_XSP16, literal(-8)))
        CFI V1 load(1, XDATA, add(CFA_XSP16, literal(-9)))
        CFI V0 load(1, XDATA, add(CFA_XSP16, literal(-10)))
        CFI VB load(1, XDATA, add(CFA_XSP16, literal(-11)))
        CFI R6 load(1, XDATA, add(CFA_XSP16, literal(-12)))
        CFI CFA_SP SP+0
        CFI CFA_XSP16 add(XSP16, 12)
        ; Saved register size: 12
        ; Auto size: 0
        MOV     A,R2
        MOV     R6,A
        MOV     A,R3
        MOV     R7,A
//  260   uint8 num=0;
//  261   (void)task_id;  // Intentionally unreferenced parameter
//  262   
//  263   if ( events & SYS_EVENT_MSG )
        ANL     A,#0x80
        JNZ     ??SerialApp_ProcessEvent_0
//  264   {
//  265     afIncomingMSGPacket_t *MSGpkt;
//  266 
//  267     while ( (MSGpkt = (afIncomingMSGPacket_t *)osal_msg_receive( SerialApp_TaskID )) )
//  268     {
//  269       switch ( MSGpkt->hdr.event )
//  270       {         
//  271       case KEY_CHANGE:
//  272         //SerialApp_HandleKeys( ((keyChange_t *)MSGpkt)->state, ((keyChange_t *)MSGpkt)->keys );
//  273         break;
//  274 
//  275       case AF_INCOMING_MSG_CMD:
//  276         SerialApp_ProcessMSGCmd( MSGpkt );
//  277         FLASHLED(3);
//  278         break;
//  279 
//  280       case ZDO_STATE_CHANGE:
//  281           SampleApp_NwkState = (devStates_t)(MSGpkt->hdr.status);
//  282           if(SampleApp_NwkState == DEV_END_DEVICE)       //判定当前设备类型
//  283           {
//  284             
//  285             
//  286             
//  287             osal_set_event(SerialApp_TaskID, PERIOD_EVT); //启动周期消息
//  288           }
//  289           LED(1,ON);
//  290         break;
//  291       default:
//  292         break;
//  293       }
//  294 
//  295       osal_msg_deallocate( (uint8 *)MSGpkt );
//  296     }
//  297 
//  298     return ( events ^ SYS_EVENT_MSG );
//  299   }
//  300   
//  301   if ( events & PERIOD_EVT ) //周期消息处理
        MOV     A,R6
        ANL     A,#0x2
        JNZ     $+5
        LJMP    ??SerialApp_ProcessEvent_1 & 0xFFFF
//  302   {
//  303     UART0_Format.Command = MSG_PERIOD;
        MOV     DPTR,#UART0_Format + 4
        MOV     A,#-0x56
        MOVX    @DPTR,A
//  304     num = CheckSum(&UART0_Format.Header,UART0_Format.Len);
//  305     UART0_Format.Verify  = num;
        ; Setup parameters for call to function CheckSum
        LCALL   ?Subroutine2 & 0xFFFF
//  306 
//  307     SerialApp_OTAData(&SerialApp_TxAddr, SERIALAPP_CLUSTERID1, &UART0_Format, sizeof(UART_Format));
??CrossCallReturnLabel_0:
        ; Setup parameters for call to function SerialApp_OTAData
        MOV     ?V0 + 0,#0x10
        MOV     R0,#?V0 + 0
        LCALL   ?PUSH_XSTACK_I_ONE
        CFI CFA_XSP16 add(XSP16, 13)
        MOV     R4,#UART0_Format & 0xff
        MOV     R5,#(UART0_Format >> 8) & 0xff
        MOV     R1,#0x1
        MOV     R2,#SerialApp_TxAddr & 0xff
        MOV     R3,#(SerialApp_TxAddr >> 8) & 0xff
        LCALL   ??SerialApp_OTAData?relay
        MOV     A,#0x1
        LCALL   ?DEALLOC_XSTACK8
        CFI CFA_XSP16 add(XSP16, 12)
//  308     osal_start_timerEx(SerialApp_TaskID, PERIOD_EVT, 5000);
        ; Setup parameters for call to function osal_start_timerEx
        MOV     R4,#-0x78
        MOV     R5,#0x13
        MOV     R2,#0x2
        MOV     R3,#0x0
        MOV     DPTR,#SerialApp_TaskID
        MOVX    A,@DPTR
        MOV     R1,A
        LCALL   ??osal_start_timerEx?relay
//  309     FLASHLED(2);
        ; Setup parameters for call to function FLASHLED
        MOV     R1,#0x2
        LCALL   ??FLASHLED?relay
//  310     return ( events ^ PERIOD_EVT );
        MOV     A,R6
        XRL     A,#0x2
        MOV     R2,A
        MOV     A,R7
??SerialApp_ProcessEvent_2:
        MOV     R3,A
        LJMP    ??SerialApp_ProcessEvent_3 & 0xFFFF
//  311   }
??SerialApp_ProcessEvent_4:
        INC     DPTR
        MOVX    A,@DPTR
        MOV     DPTR,#SampleApp_NwkState
        MOVX    @DPTR,A
        XRL     A,#0x6
        JNZ     ??SerialApp_ProcessEvent_5
        ; Setup parameters for call to function osal_set_event
        MOV     R2,#0x2
        MOV     R3,#0x0
        MOV     DPTR,#SerialApp_TaskID
        MOVX    A,@DPTR
        MOV     R1,A
        LCALL   ??osal_set_event?relay
??SerialApp_ProcessEvent_5:
        ; Setup parameters for call to function LED
        MOV     R2,#0x1
        MOV     R1,#0x1
        LCALL   ??LED?relay
??SerialApp_ProcessEvent_6:
        ; Setup parameters for call to function osal_msg_deallocate
        MOV     R2,?V0 + 0
        MOV     R3,?V0 + 1
        LCALL   ??osal_msg_deallocate?relay
??SerialApp_ProcessEvent_0:
        ; Setup parameters for call to function osal_msg_receive
        MOV     DPTR,#SerialApp_TaskID
        MOVX    A,@DPTR
        MOV     R1,A
        LCALL   ??osal_msg_receive?relay
        MOV     ?V0 + 0,R2
        MOV     ?V0 + 1,R3
        MOV     A,R2
        ORL     A,?V0 + 1
        JZ      ??SerialApp_ProcessEvent_7
        MOV     DPL,R2
        MOV     DPH,R3
        MOVX    A,@DPTR
        ADD     A,#-0x1a
        JZ      ??SerialApp_ProcessEvent_8
        ADD     A,#0x49
        JZ      ??SerialApp_ProcessEvent_4
        SJMP    ??SerialApp_ProcessEvent_6
??SerialApp_ProcessEvent_8:
        ; Setup parameters for call to function SerialApp_ProcessMSGCmd
        LCALL   ??SerialApp_ProcessMSGCmd?relay
        ; Setup parameters for call to function FLASHLED
        MOV     R1,#0x3
        LCALL   ??FLASHLED?relay
        SJMP    ??SerialApp_ProcessEvent_6
??SerialApp_ProcessEvent_7:
        MOV     A,R6
        MOV     R2,A
        MOV     A,R7
        XRL     A,#0x80
        SJMP    ??SerialApp_ProcessEvent_2
//  312 
//  313   if ( events & SERIALAPP_SEND_EVT )  //将串口数据通过RF消息发送
??SerialApp_ProcessEvent_1:
        MOV     A,R6
        MOV     C,0xE0 /* A   */.0
        JNC     ??SerialApp_ProcessEvent_9
//  314   { 
//  315     num = CheckSum(&UART0_Format.Header,UART0_Format.Len);
//  316     UART0_Format.Verify  = num;
        ; Setup parameters for call to function CheckSum
        LCALL   ?Subroutine2 & 0xFFFF
//  317 
//  318     SerialApp_OTAData(&SerialApp_TxAddr,SERIALAPP_CLUSTERID1,SerialApp_TxBuf, SerialApp_TxLen);
??CrossCallReturnLabel_1:
        ; Setup parameters for call to function SerialApp_OTAData
        MOV     DPTR,#SerialApp_TxLen
        MOVX    A,@DPTR
        MOV     ?V0 + 0,A
        MOV     R0,#?V0 + 0
        LCALL   ?PUSH_XSTACK_I_ONE
        CFI CFA_XSP16 add(XSP16, 13)
        MOV     R4,#SerialApp_TxBuf & 0xff
        MOV     R5,#(SerialApp_TxBuf >> 8) & 0xff
        MOV     R1,#0x1
        MOV     R2,#SerialApp_TxAddr & 0xff
        MOV     R3,#(SerialApp_TxAddr >> 8) & 0xff
        LCALL   ??SerialApp_OTAData?relay
        MOV     A,#0x1
        LCALL   ?DEALLOC_XSTACK8
        CFI CFA_XSP16 add(XSP16, 12)
//  319     FLASHLED(4);
        ; Setup parameters for call to function FLASHLED
        MOV     R1,#0x4
        LCALL   ??FLASHLED?relay
//  320     return ( events ^ SERIALAPP_SEND_EVT );
        MOV     A,R6
        XRL     A,#0x1
        MOV     R2,A
        MOV     A,R7
        MOV     R3,A
        SJMP    ??SerialApp_ProcessEvent_3
//  321   }
//  322 
//  323   return ( 0 );  // Discard unknown events.
??SerialApp_ProcessEvent_9:
        MOV     R2,#0x0
        MOV     R3,#0x0
        CFI EndBlock cfiBlock5
??SerialApp_ProcessEvent_3:
        REQUIRE ?Subroutine1
        ; // Fall through to label ?Subroutine1
//  324 }

        RSEG BANKED_CODE:CODE:NOROOT(0)
?Subroutine1:
        CFI Block cfiBlock6 Using cfiCommon0
        CFI NoFunction
        CFI CFA_SP SP+0
        CFI CFA_XSP16 add(XSP16, 12)
        CFI VB load(1, XDATA, add(CFA_XSP16, literal(-11)))
        CFI DPL0 load(1, XDATA, add(CFA_XSP16, literal(-2)))
        CFI DPH0 load(1, XDATA, add(CFA_XSP16, literal(-1)))
        CFI R6 load(1, XDATA, add(CFA_XSP16, literal(-12)))
        CFI R7 load(1, XDATA, add(CFA_XSP16, literal(-6)))
        CFI V0 load(1, XDATA, add(CFA_XSP16, literal(-10)))
        CFI V1 load(1, XDATA, add(CFA_XSP16, literal(-9)))
        CFI V2 load(1, XDATA, add(CFA_XSP16, literal(-8)))
        CFI V3 load(1, XDATA, add(CFA_XSP16, literal(-7)))
        CFI ?BRET_EXT load(1, XDATA, add(CFA_XSP16, literal(-3)))
        CFI ?RET_HIGH load(1, XDATA, add(CFA_XSP16, literal(-4)))
        CFI ?RET_LOW load(1, XDATA, add(CFA_XSP16, literal(-5)))
        MOV     R7,#0x4
        LJMP    ?BANKED_LEAVE_XDATA
        CFI EndBlock cfiBlock6

        RSEG BANKED_CODE:CODE:NOROOT(0)
?Subroutine2:
        CFI Block cfiCond7 Using cfiCommon0
        CFI NoFunction
        CFI Conditional ??CrossCallReturnLabel_0
        CFI R6 load(1, XDATA, add(CFA_XSP16, literal(-12)))
        CFI VB load(1, XDATA, add(CFA_XSP16, literal(-11)))
        CFI V0 load(1, XDATA, add(CFA_XSP16, literal(-10)))
        CFI V1 load(1, XDATA, add(CFA_XSP16, literal(-9)))
        CFI V2 load(1, XDATA, add(CFA_XSP16, literal(-8)))
        CFI V3 load(1, XDATA, add(CFA_XSP16, literal(-7)))
        CFI R7 load(1, XDATA, add(CFA_XSP16, literal(-6)))
        CFI ?RET_LOW load(1, XDATA, add(CFA_XSP16, literal(-5)))
        CFI ?RET_HIGH load(1, XDATA, add(CFA_XSP16, literal(-4)))
        CFI ?BRET_EXT load(1, XDATA, add(CFA_XSP16, literal(-3)))
        CFI DPL0 load(1, XDATA, add(CFA_XSP16, literal(-2)))
        CFI DPH0 load(1, XDATA, add(CFA_XSP16, literal(-1)))
        CFI CFA_SP SP+0
        CFI CFA_XSP16 add(XSP16, 12)
        CFI Block cfiCond8 Using cfiCommon0
        CFI (cfiCond8) NoFunction
        CFI (cfiCond8) Conditional ??CrossCallReturnLabel_1
        CFI (cfiCond8) R6 load(1, XDATA, add(CFA_XSP16, literal(-12)))
        CFI (cfiCond8) VB load(1, XDATA, add(CFA_XSP16, literal(-11)))
        CFI (cfiCond8) V0 load(1, XDATA, add(CFA_XSP16, literal(-10)))
        CFI (cfiCond8) V1 load(1, XDATA, add(CFA_XSP16, literal(-9)))
        CFI (cfiCond8) V2 load(1, XDATA, add(CFA_XSP16, literal(-8)))
        CFI (cfiCond8) V3 load(1, XDATA, add(CFA_XSP16, literal(-7)))
        CFI (cfiCond8) R7 load(1, XDATA, add(CFA_XSP16, literal(-6)))
        CFI (cfiCond8) ?RET_LOW load(1, XDATA, add(CFA_XSP16, literal(-5)))
        CFI (cfiCond8) ?RET_HIGH load(1, XDATA, add(CFA_XSP16, literal(-4)))
        CFI (cfiCond8) ?BRET_EXT load(1, XDATA, add(CFA_XSP16, literal(-3)))
        CFI (cfiCond8) DPL0 load(1, XDATA, add(CFA_XSP16, literal(-2)))
        CFI (cfiCond8) DPH0 load(1, XDATA, add(CFA_XSP16, literal(-1)))
        CFI (cfiCond8) CFA_SP SP+0
        CFI (cfiCond8) CFA_XSP16 add(XSP16, 12)
        CFI Block cfiPicker9 Using cfiCommon1
        CFI (cfiPicker9) NoFunction
        CFI (cfiPicker9) Picker
        MOV     DPTR,#UART0_Format + 1
        MOVX    A,@DPTR
        MOV     R1,A
        MOV     R2,#UART0_Format & 0xff
        MOV     R3,#(UART0_Format >> 8) & 0xff
        LCALL   ??CheckSum?relay
        MOV     A,R1
        MOV     DPTR,#UART0_Format + 15
        MOVX    @DPTR,A
        RET
        CFI EndBlock cfiCond7
        CFI EndBlock cfiCond8
        CFI EndBlock cfiPicker9
//  325 
//  326 
//  327 /*****************************************************************************************
//  328 *函数名称 ：消息处理函数				                                 
//  329 *入口参数 ：pkt   - 指向接收到的无线消息数据包的指针                                 
//  330 *返 回 值 ：TRUE  - 如果指针被应用并释放            
//  331 *           FALSE - 其他	                                                          
//  332 *说    明 ：处理收到的无线消息，并把消息通过串口发送给网关                               
//  333 *****************************************************************************************/
//  334 

        RSEG BANKED_CODE:CODE:NOROOT(0)
//  335 void SerialApp_ProcessMSGCmd( afIncomingMSGPacket_t *pkt )  //处理接收到的RF消息
SerialApp_ProcessMSGCmd:
        CFI Block cfiBlock10 Using cfiCommon0
        CFI Function SerialApp_ProcessMSGCmd
        CODE
//  336 { 
        FUNCALL SerialApp_ProcessMSGCmd, HalLedBlink
        LOCFRAME ISTACK, 0, STACK
        LOCFRAME PSTACK, 0, STACK
        LOCFRAME XSTACK, 9, STACK
        LOCFRAME IOVERLAY, 0, STATIC
        LOCFRAME DOVERLAY, 0, STATIC
        ARGFRAME ISTACK, 0, STACK
        ARGFRAME PSTACK, 0, STACK
        ARGFRAME XSTACK, 9, STACK
        ARGFRAME IOVERLAY, 0, STATIC
        ARGFRAME DOVERLAY, 0, STATIC
        FUNCALL SerialApp_ProcessMSGCmd, CheckSum
        LOCFRAME ISTACK, 0, STACK
        LOCFRAME PSTACK, 0, STACK
        LOCFRAME XSTACK, 9, STACK
        LOCFRAME IOVERLAY, 0, STATIC
        LOCFRAME DOVERLAY, 0, STATIC
        ARGFRAME ISTACK, 0, STACK
        ARGFRAME PSTACK, 0, STACK
        ARGFRAME XSTACK, 9, STACK
        ARGFRAME IOVERLAY, 0, STATIC
        ARGFRAME DOVERLAY, 0, STATIC
        FUNCALL SerialApp_ProcessMSGCmd, CheckSum
        LOCFRAME ISTACK, 0, STACK
        LOCFRAME PSTACK, 0, STACK
        LOCFRAME XSTACK, 9, STACK
        LOCFRAME IOVERLAY, 0, STATIC
        LOCFRAME DOVERLAY, 0, STATIC
        ARGFRAME ISTACK, 0, STACK
        ARGFRAME PSTACK, 0, STACK
        ARGFRAME XSTACK, 9, STACK
        ARGFRAME IOVERLAY, 0, STATIC
        ARGFRAME DOVERLAY, 0, STATIC
        FUNCALL SerialApp_ProcessMSGCmd, SerialApp_OTAData
        LOCFRAME ISTACK, 0, STACK
        LOCFRAME PSTACK, 0, STACK
        LOCFRAME XSTACK, 10, STACK
        LOCFRAME IOVERLAY, 0, STATIC
        LOCFRAME DOVERLAY, 0, STATIC
        ARGFRAME ISTACK, 0, STACK
        ARGFRAME PSTACK, 0, STACK
        ARGFRAME XSTACK, 10, STACK
        ARGFRAME IOVERLAY, 0, STATIC
        ARGFRAME DOVERLAY, 0, STATIC
        FUNCALL SerialApp_ProcessMSGCmd, FLASHLED
        LOCFRAME ISTACK, 0, STACK
        LOCFRAME PSTACK, 0, STACK
        LOCFRAME XSTACK, 9, STACK
        LOCFRAME IOVERLAY, 0, STATIC
        LOCFRAME DOVERLAY, 0, STATIC
        ARGFRAME ISTACK, 0, STACK
        ARGFRAME PSTACK, 0, STACK
        ARGFRAME XSTACK, 9, STACK
        ARGFRAME IOVERLAY, 0, STATIC
        ARGFRAME DOVERLAY, 0, STATIC
        MOV     A,#-0x9
        LCALL   ?BANKED_ENTER_XDATA
        CFI DPH0 load(1, XDATA, add(CFA_XSP16, literal(-1)))
        CFI DPL0 load(1, XDATA, add(CFA_XSP16, literal(-2)))
        CFI ?BRET_EXT load(1, XDATA, add(CFA_XSP16, literal(-3)))
        CFI ?RET_HIGH load(1, XDATA, add(CFA_XSP16, literal(-4)))
        CFI ?RET_LOW load(1, XDATA, add(CFA_XSP16, literal(-5)))
        CFI R7 load(1, XDATA, add(CFA_XSP16, literal(-6)))
        CFI V0 load(1, XDATA, add(CFA_XSP16, literal(-7)))
        CFI VB load(1, XDATA, add(CFA_XSP16, literal(-8)))
        CFI R6 load(1, XDATA, add(CFA_XSP16, literal(-9)))
        CFI CFA_SP SP+0
        CFI CFA_XSP16 add(XSP16, 9)
        ; Saved register size: 9
        ; Auto size: 0
//  337   uint8 num1,num2=0;
//  338   static UART_Format_Control *receiveData;
//  339   
//  340   static UART_Format_End1 Rsp;
//  341   Rsp.Header   = '@';
        MOV     DPTR,#??Rsp
        MOV     A,#0x40
        MOVX    @DPTR,A
//  342   Rsp.Len      = 0x07;
        INC     DPTR
        MOV     A,#0x7
        LCALL   ?Subroutine4 & 0xFFFF
//  343   Rsp.NodeSeq  = 0x01;
//  344   Rsp.NodeID   = LED_PWM;
//  345   Rsp.Command  = MSG_RSP;
??CrossCallReturnLabel_5:
        INC     DPTR
        MOV     A,#-0x23
        MOVX    @DPTR,A
//  346   
//  347   switch ( pkt->clusterId )
        MOV     DPL,R2
        MOV     DPH,R3
        INC     DPTR
        INC     DPTR
        INC     DPTR
        INC     DPTR
        MOVX    A,@DPTR
        XRL     A,#0x1
        JNZ     ??SerialApp_ProcessMSGCmd_0
        INC     DPTR
        MOVX    A,@DPTR
??SerialApp_ProcessMSGCmd_0:
        JZ      $+5
        LJMP    ??SerialApp_ProcessMSGCmd_1 & 0xFFFF
//  348   {
//  349      case SERIALAPP_CLUSTERID1:  //处理各个传感器节数据    
//  350      receiveData = (UART_Format_Control *)(pkt->cmd.Data);
        MOV     A,R2
        ADD     A,#0x22
        MOV     DPL,A
        MOV     A,R3
        ADDC    A,#0x0
        MOV     DPH,A
        MOVX    A,@DPTR
        MOV     R0,A
        INC     DPTR
        MOVX    A,@DPTR
        MOV     R1,A
        MOV     DPTR,#??receiveData
        MOV     A,R0
        MOVX    @DPTR,A
        INC     DPTR
        MOV     A,R1
        MOVX    @DPTR,A
//  351      HalLedBlink(HAL_LED_1,1,50,200);
        ; Setup parameters for call to function HalLedBlink
        MOV     R4,#-0x38
        MOV     R5,#0x0
        MOV     R3,#0x32
        MOV     R2,#0x1
        MOV     R1,#0x1
        LCALL   ??HalLedBlink?relay
//  352      num1 = CheckSum((uint8*)receiveData,receiveData->Len);
        ; Setup parameters for call to function CheckSum
        LCALL   ?Subroutine5 & 0xFFFF
??CrossCallReturnLabel_6:
        MOVX    A,@DPTR
        MOV     R1,A
        MOV     DPTR,#??receiveData
        MOVX    A,@DPTR
        MOV     R2,A
        INC     DPTR
        MOVX    A,@DPTR
        MOV     R3,A
        LCALL   ??CheckSum?relay
        MOV     A,R1
        MOV     R0,A
//  353      
//  354      if((receiveData->Header==0x40)&&(receiveData->Verify==num1)) //校验包头包尾
        MOV     DPTR,#??receiveData
        MOVX    A,@DPTR
        MOV     R1,A
        INC     DPTR
        MOVX    A,@DPTR
        MOV     DPH,A
        MOV     DPL,R1
        MOVX    A,@DPTR
        XRL     A,#0x40
        JZ      $+5
        LJMP    ??SerialApp_ProcessMSGCmd_1 & 0xFFFF
        MOV     DPTR,#??receiveData + 1
        MOVX    A,@DPTR
        MOV     DPH,A
        MOV     DPL,R1
        INC     DPTR
        INC     DPTR
        INC     DPTR
        INC     DPTR
        INC     DPTR
        MOVX    A,@DPTR
        XRL     A,R0
        JZ      $+5
        LJMP    ??SerialApp_ProcessMSGCmd_1 & 0xFFFF
//  355 
//  356      { 
//  357         if(receiveData->NodeID == LED_PWM) //地址
        LCALL   ?Subroutine5 & 0xFFFF
??CrossCallReturnLabel_7:
        INC     DPTR
        INC     DPTR
        MOVX    A,@DPTR
        XRL     A,#0x9
        JNZ     ??SerialApp_ProcessMSGCmd_2
//  358        {
//  359        //占空比调节
//  360            if(receiveData->Command != MSG_RSC)
        MOV     DPTR,#??receiveData + 1
        LCALL   ?Subroutine6 & 0xFFFF
??CrossCallReturnLabel_8:
        XRL     A,#0xcc
        JZ      ??SerialApp_ProcessMSGCmd_3
//  361            {
//  362                DutyRatio  = receiveData->Command;      //根据指令设置占空比
        MOV     DPTR,#??receiveData
        MOVX    A,@DPTR
        ADD     A,#0x4
        MOV     R0,A
        INC     DPTR
        MOVX    A,@DPTR
        ADDC    A,#0x0
        MOV     R1,A
        MOV     DPL,R0
        MOV     DPH,R1
        MOVX    A,@DPTR
        MOV     DPTR,#DutyRatio
        MOVX    @DPTR,A
//  363                if( DutyRatio != receiveData->Command)
        MOV     R2,A
        MOV     DPL,R0
        MOV     DPH,R1
        MOVX    A,@DPTR
        XRL     A,R2
        JZ      ??SerialApp_ProcessMSGCmd_4
//  364                {
//  365                   DutyRatio  = receiveData->Command;   //如果设置不成功再次根据指令设置占空比
        LCALL   ?Subroutine3 & 0xFFFF
//  366                }
??CrossCallReturnLabel_2:
        MOV     DPTR,#DutyRatio
        MOVX    @DPTR,A
//  367                
//  368                Rsp.Data[0]= DutyRatio;//返回当前占空比
??SerialApp_ProcessMSGCmd_4:
        MOV     DPTR,#DutyRatio
        MOVX    A,@DPTR
        MOV     DPTR,#??Rsp + 5
        MOVX    @DPTR,A
//  369            }
//  370            if(receiveData->Command == MSG_RSC)
        LCALL   ?Subroutine3 & 0xFFFF
??CrossCallReturnLabel_3:
        XRL     A,#0xcc
        JNZ     ??SerialApp_ProcessMSGCmd_2
//  371            {
//  372                Rsp.Data[0]= DutyRatio;//返回当前占空比
??SerialApp_ProcessMSGCmd_3:
        MOV     DPTR,#DutyRatio
        MOVX    A,@DPTR
        MOV     DPTR,#??Rsp + 5
        MOVX    @DPTR,A
//  373            }
//  374        
//  375        }
//  376        num2 = CheckSum(&Rsp.Header,Rsp.Len);
//  377        Rsp.Verify  = num2;
??SerialApp_ProcessMSGCmd_2:
        ; Setup parameters for call to function CheckSum
        MOV     DPTR,#??Rsp + 1
        MOVX    A,@DPTR
        MOV     R1,A
        MOV     R2,#??Rsp & 0xff
        MOV     R3,#(??Rsp >> 8) & 0xff
        LCALL   ??CheckSum?relay
        MOV     A,R1
        MOV     DPTR,#??Rsp + 6
        MOVX    @DPTR,A
//  378        SerialApp_OTAData(&SerialApp_TxAddr, SERIALAPP_CLUSTERID1, &Rsp, sizeof(UART_Format_End1));
        ; Setup parameters for call to function SerialApp_OTAData
        MOV     ?V0 + 0,#0x7
        MOV     R0,#?V0 + 0
        LCALL   ?PUSH_XSTACK_I_ONE
        CFI CFA_XSP16 add(XSP16, 10)
        MOV     R4,#??Rsp & 0xff
        MOV     R5,#(??Rsp >> 8) & 0xff
        MOV     R1,#0x1
        MOV     R2,#SerialApp_TxAddr & 0xff
        MOV     R3,#(SerialApp_TxAddr >> 8) & 0xff
        LCALL   ??SerialApp_OTAData?relay
        MOV     A,#0x1
        LCALL   ?DEALLOC_XSTACK8
        CFI CFA_XSP16 add(XSP16, 9)
//  379        FLASHLED(4);
        ; Setup parameters for call to function FLASHLED
        MOV     R1,#0x4
        LCALL   ??FLASHLED?relay
//  380      }
//  381     break;
//  382 
//  383   case SERIALAPP_CLUSTERID2:
//  384     break;
//  385 
//  386     default:
//  387       break;
//  388   }
//  389 }
??SerialApp_ProcessMSGCmd_1:
        LJMP    ?Subroutine0 & 0xFFFF
        CFI EndBlock cfiBlock10

        RSEG BANKED_CODE:CODE:NOROOT(0)
?Subroutine5:
        CFI Block cfiCond11 Using cfiCommon0
        CFI NoFunction
        CFI Conditional ??CrossCallReturnLabel_6
        CFI R6 load(1, XDATA, add(CFA_XSP16, literal(-9)))
        CFI VB load(1, XDATA, add(CFA_XSP16, literal(-8)))
        CFI V0 load(1, XDATA, add(CFA_XSP16, literal(-7)))
        CFI R7 load(1, XDATA, add(CFA_XSP16, literal(-6)))
        CFI ?RET_LOW load(1, XDATA, add(CFA_XSP16, literal(-5)))
        CFI ?RET_HIGH load(1, XDATA, add(CFA_XSP16, literal(-4)))
        CFI ?BRET_EXT load(1, XDATA, add(CFA_XSP16, literal(-3)))
        CFI DPL0 load(1, XDATA, add(CFA_XSP16, literal(-2)))
        CFI DPH0 load(1, XDATA, add(CFA_XSP16, literal(-1)))
        CFI CFA_SP SP+0
        CFI CFA_XSP16 add(XSP16, 9)
        CFI Block cfiCond12 Using cfiCommon0
        CFI (cfiCond12) NoFunction
        CFI (cfiCond12) Conditional ??CrossCallReturnLabel_7
        CFI (cfiCond12) R6 load(1, XDATA, add(CFA_XSP16, literal(-9)))
        CFI (cfiCond12) VB load(1, XDATA, add(CFA_XSP16, literal(-8)))
        CFI (cfiCond12) V0 load(1, XDATA, add(CFA_XSP16, literal(-7)))
        CFI (cfiCond12) R7 load(1, XDATA, add(CFA_XSP16, literal(-6)))
        CFI (cfiCond12) ?RET_LOW load(1, XDATA, add(CFA_XSP16, literal(-5)))
        CFI (cfiCond12) ?RET_HIGH load(1, XDATA, add(CFA_XSP16, literal(-4)))
        CFI (cfiCond12) ?BRET_EXT load(1, XDATA, add(CFA_XSP16, literal(-3)))
        CFI (cfiCond12) DPL0 load(1, XDATA, add(CFA_XSP16, literal(-2)))
        CFI (cfiCond12) DPH0 load(1, XDATA, add(CFA_XSP16, literal(-1)))
        CFI (cfiCond12) CFA_SP SP+0
        CFI (cfiCond12) CFA_XSP16 add(XSP16, 9)
        CFI Block cfiPicker13 Using cfiCommon1
        CFI (cfiPicker13) NoFunction
        CFI (cfiPicker13) Picker
        MOV     DPTR,#??receiveData
        MOVX    A,@DPTR
        MOV     R0,A
        INC     DPTR
        MOVX    A,@DPTR
        MOV     DPH,A
        MOV     DPL,R0
        INC     DPTR
        RET
        CFI EndBlock cfiCond11
        CFI EndBlock cfiCond12
        CFI EndBlock cfiPicker13

        RSEG BANKED_CODE:CODE:NOROOT(0)
?Subroutine4:
        CFI Block cfiCond14 Using cfiCommon0
        CFI NoFunction
        CFI Conditional ??CrossCallReturnLabel_4
        CFI R6 load(1, XDATA, add(CFA_XSP16, literal(-9)))
        CFI VB load(1, XDATA, add(CFA_XSP16, literal(-8)))
        CFI V0 load(1, XDATA, add(CFA_XSP16, literal(-7)))
        CFI R7 load(1, XDATA, add(CFA_XSP16, literal(-6)))
        CFI ?RET_LOW load(1, XDATA, add(CFA_XSP16, literal(-5)))
        CFI ?RET_HIGH load(1, XDATA, add(CFA_XSP16, literal(-4)))
        CFI ?BRET_EXT load(1, XDATA, add(CFA_XSP16, literal(-3)))
        CFI DPL0 load(1, XDATA, add(CFA_XSP16, literal(-2)))
        CFI DPH0 load(1, XDATA, add(CFA_XSP16, literal(-1)))
        CFI CFA_SP SP+0
        CFI CFA_XSP16 add(XSP16, 9)
        CFI Block cfiCond15 Using cfiCommon0
        CFI (cfiCond15) NoFunction
        CFI (cfiCond15) Conditional ??CrossCallReturnLabel_5
        CFI (cfiCond15) R6 load(1, XDATA, add(CFA_XSP16, literal(-9)))
        CFI (cfiCond15) VB load(1, XDATA, add(CFA_XSP16, literal(-8)))
        CFI (cfiCond15) V0 load(1, XDATA, add(CFA_XSP16, literal(-7)))
        CFI (cfiCond15) R7 load(1, XDATA, add(CFA_XSP16, literal(-6)))
        CFI (cfiCond15) ?RET_LOW load(1, XDATA, add(CFA_XSP16, literal(-5)))
        CFI (cfiCond15) ?RET_HIGH load(1, XDATA, add(CFA_XSP16, literal(-4)))
        CFI (cfiCond15) ?BRET_EXT load(1, XDATA, add(CFA_XSP16, literal(-3)))
        CFI (cfiCond15) DPL0 load(1, XDATA, add(CFA_XSP16, literal(-2)))
        CFI (cfiCond15) DPH0 load(1, XDATA, add(CFA_XSP16, literal(-1)))
        CFI (cfiCond15) CFA_SP SP+0
        CFI (cfiCond15) CFA_XSP16 add(XSP16, 9)
        CFI Block cfiPicker16 Using cfiCommon1
        CFI (cfiPicker16) NoFunction
        CFI (cfiPicker16) Picker
        MOVX    @DPTR,A
        INC     DPTR
        MOV     A,#0x1
        MOVX    @DPTR,A
        INC     DPTR
        MOV     A,#0x9
        MOVX    @DPTR,A
        RET
        CFI EndBlock cfiCond14
        CFI EndBlock cfiCond15
        CFI EndBlock cfiPicker16

        RSEG BANKED_CODE:CODE:NOROOT(0)
?Subroutine3:
        CFI Block cfiCond17 Using cfiCommon0
        CFI NoFunction
        CFI Conditional ??CrossCallReturnLabel_2
        CFI R6 load(1, XDATA, add(CFA_XSP16, literal(-9)))
        CFI VB load(1, XDATA, add(CFA_XSP16, literal(-8)))
        CFI V0 load(1, XDATA, add(CFA_XSP16, literal(-7)))
        CFI R7 load(1, XDATA, add(CFA_XSP16, literal(-6)))
        CFI ?RET_LOW load(1, XDATA, add(CFA_XSP16, literal(-5)))
        CFI ?RET_HIGH load(1, XDATA, add(CFA_XSP16, literal(-4)))
        CFI ?BRET_EXT load(1, XDATA, add(CFA_XSP16, literal(-3)))
        CFI DPL0 load(1, XDATA, add(CFA_XSP16, literal(-2)))
        CFI DPH0 load(1, XDATA, add(CFA_XSP16, literal(-1)))
        CFI CFA_SP SP+0
        CFI CFA_XSP16 add(XSP16, 9)
        CFI Block cfiCond18 Using cfiCommon0
        CFI (cfiCond18) NoFunction
        CFI (cfiCond18) Conditional ??CrossCallReturnLabel_3
        CFI (cfiCond18) R6 load(1, XDATA, add(CFA_XSP16, literal(-9)))
        CFI (cfiCond18) VB load(1, XDATA, add(CFA_XSP16, literal(-8)))
        CFI (cfiCond18) V0 load(1, XDATA, add(CFA_XSP16, literal(-7)))
        CFI (cfiCond18) R7 load(1, XDATA, add(CFA_XSP16, literal(-6)))
        CFI (cfiCond18) ?RET_LOW load(1, XDATA, add(CFA_XSP16, literal(-5)))
        CFI (cfiCond18) ?RET_HIGH load(1, XDATA, add(CFA_XSP16, literal(-4)))
        CFI (cfiCond18) ?BRET_EXT load(1, XDATA, add(CFA_XSP16, literal(-3)))
        CFI (cfiCond18) DPL0 load(1, XDATA, add(CFA_XSP16, literal(-2)))
        CFI (cfiCond18) DPH0 load(1, XDATA, add(CFA_XSP16, literal(-1)))
        CFI (cfiCond18) CFA_SP SP+0
        CFI (cfiCond18) CFA_XSP16 add(XSP16, 9)
        CFI Block cfiPicker19 Using cfiCommon1
        CFI (cfiPicker19) NoFunction
        CFI (cfiPicker19) Picker
        MOV     DPTR,#??receiveData
        MOVX    A,@DPTR
        MOV     R0,A
        INC     DPTR
        LCALL   ?Subroutine6 & 0xFFFF
??CrossCallReturnLabel_9:
        RET
        CFI EndBlock cfiCond17
        CFI EndBlock cfiCond18
        CFI EndBlock cfiPicker19

        RSEG BANKED_CODE:CODE:NOROOT(0)
?Subroutine6:
        CFI Block cfiCond20 Using cfiCommon0
        CFI NoFunction
        CFI Conditional ??CrossCallReturnLabel_8
        CFI R6 load(1, XDATA, add(CFA_XSP16, literal(-9)))
        CFI VB load(1, XDATA, add(CFA_XSP16, literal(-8)))
        CFI V0 load(1, XDATA, add(CFA_XSP16, literal(-7)))
        CFI R7 load(1, XDATA, add(CFA_XSP16, literal(-6)))
        CFI ?RET_LOW load(1, XDATA, add(CFA_XSP16, literal(-5)))
        CFI ?RET_HIGH load(1, XDATA, add(CFA_XSP16, literal(-4)))
        CFI ?BRET_EXT load(1, XDATA, add(CFA_XSP16, literal(-3)))
        CFI DPL0 load(1, XDATA, add(CFA_XSP16, literal(-2)))
        CFI DPH0 load(1, XDATA, add(CFA_XSP16, literal(-1)))
        CFI CFA_SP SP+0
        CFI CFA_XSP16 add(XSP16, 9)
        CFI Block cfiCond21 Using cfiCommon0
        CFI (cfiCond21) NoFunction
        CFI (cfiCond21) Conditional ??CrossCallReturnLabel_9, ??CrossCallReturnLabel_2
        CFI (cfiCond21) R6 load(1, XDATA, add(CFA_XSP16, literal(-9)))
        CFI (cfiCond21) VB load(1, XDATA, add(CFA_XSP16, literal(-8)))
        CFI (cfiCond21) V0 load(1, XDATA, add(CFA_XSP16, literal(-7)))
        CFI (cfiCond21) R7 load(1, XDATA, add(CFA_XSP16, literal(-6)))
        CFI (cfiCond21) ?RET_LOW load(1, XDATA, add(CFA_XSP16, literal(-5)))
        CFI (cfiCond21) ?RET_HIGH load(1, XDATA, add(CFA_XSP16, literal(-4)))
        CFI (cfiCond21) ?BRET_EXT load(1, XDATA, add(CFA_XSP16, literal(-3)))
        CFI (cfiCond21) DPL0 load(1, XDATA, add(CFA_XSP16, literal(-2)))
        CFI (cfiCond21) DPH0 load(1, XDATA, add(CFA_XSP16, literal(-1)))
        CFI (cfiCond21) CFA_SP SP+0
        CFI (cfiCond21) CFA_XSP16 add(XSP16, 9)
        CFI Block cfiCond22 Using cfiCommon0
        CFI (cfiCond22) NoFunction
        CFI (cfiCond22) Conditional ??CrossCallReturnLabel_9, ??CrossCallReturnLabel_3
        CFI (cfiCond22) R6 load(1, XDATA, add(CFA_XSP16, literal(-9)))
        CFI (cfiCond22) VB load(1, XDATA, add(CFA_XSP16, literal(-8)))
        CFI (cfiCond22) V0 load(1, XDATA, add(CFA_XSP16, literal(-7)))
        CFI (cfiCond22) R7 load(1, XDATA, add(CFA_XSP16, literal(-6)))
        CFI (cfiCond22) ?RET_LOW load(1, XDATA, add(CFA_XSP16, literal(-5)))
        CFI (cfiCond22) ?RET_HIGH load(1, XDATA, add(CFA_XSP16, literal(-4)))
        CFI (cfiCond22) ?BRET_EXT load(1, XDATA, add(CFA_XSP16, literal(-3)))
        CFI (cfiCond22) DPL0 load(1, XDATA, add(CFA_XSP16, literal(-2)))
        CFI (cfiCond22) DPH0 load(1, XDATA, add(CFA_XSP16, literal(-1)))
        CFI (cfiCond22) CFA_SP SP+0
        CFI (cfiCond22) CFA_XSP16 add(XSP16, 9)
        CFI Block cfiPicker23 Using cfiCommon1
        CFI (cfiPicker23) NoFunction
        CFI (cfiPicker23) Picker
        MOVX    A,@DPTR
        MOV     DPH,A
        MOV     DPL,R0
        INC     DPTR
        INC     DPTR
        INC     DPTR
        INC     DPTR
        MOVX    A,@DPTR
        RET
        CFI EndBlock cfiCond20
        CFI EndBlock cfiCond21
        CFI EndBlock cfiCond22
        CFI EndBlock cfiPicker23

        RSEG XDATA_Z:XDATA:NOROOT(0)
        DATA16
??receiveData:
        DS 2
        REQUIRE __INIT_XDATA_Z

        RSEG XDATA_Z:XDATA:NOROOT(0)
        DATA8
??Rsp:
        DS 7
        REQUIRE __INIT_XDATA_Z
//  390 
//  391 /*****************************************************************************************
//  392 *函数名称 ：无线消息发送函数				                                 
//  393 *入口参数 ：*txaddr - 发送地址
//  394 *           cID     - clusterID
//  395 *           *p      - 发送数据包的地址
//  396 *           len     - 发送数据包的长度
//  397 *返 回 值 ：无                                                                                
//  398 *说    明 ：把组好的数据包，通过无线发送出去                                                            
//  399 *****************************************************************************************/
//  400 
//  401 

        RSEG BANKED_CODE:CODE:NOROOT(0)
//  402 void SerialApp_OTAData(afAddrType_t *txaddr, uint8 cID, void *p, uint8 len) //发送函数
SerialApp_OTAData:
        CFI Block cfiBlock24 Using cfiCommon0
        CFI Function SerialApp_OTAData
        CODE
//  403 {
        FUNCALL SerialApp_OTAData, AF_DataRequest
        LOCFRAME ISTACK, 0, STACK
        LOCFRAME PSTACK, 0, STACK
        LOCFRAME XSTACK, 19, STACK
        LOCFRAME IOVERLAY, 0, STATIC
        LOCFRAME DOVERLAY, 0, STATIC
        ARGFRAME ISTACK, 0, STACK
        ARGFRAME PSTACK, 0, STACK
        ARGFRAME XSTACK, 19, STACK
        ARGFRAME IOVERLAY, 0, STATIC
        ARGFRAME DOVERLAY, 0, STATIC
        FUNCALL SerialApp_OTAData, HalLedBlink
        LOCFRAME ISTACK, 0, STACK
        LOCFRAME PSTACK, 0, STACK
        LOCFRAME XSTACK, 10, STACK
        LOCFRAME IOVERLAY, 0, STATIC
        LOCFRAME DOVERLAY, 0, STATIC
        ARGFRAME ISTACK, 0, STACK
        ARGFRAME PSTACK, 0, STACK
        ARGFRAME XSTACK, 10, STACK
        ARGFRAME IOVERLAY, 0, STATIC
        ARGFRAME DOVERLAY, 0, STATIC
        MOV     A,#-0xa
        LCALL   ?BANKED_ENTER_XDATA
        CFI DPH0 load(1, XDATA, add(CFA_XSP16, literal(-1)))
        CFI DPL0 load(1, XDATA, add(CFA_XSP16, literal(-2)))
        CFI ?BRET_EXT load(1, XDATA, add(CFA_XSP16, literal(-3)))
        CFI ?RET_HIGH load(1, XDATA, add(CFA_XSP16, literal(-4)))
        CFI ?RET_LOW load(1, XDATA, add(CFA_XSP16, literal(-5)))
        CFI R7 load(1, XDATA, add(CFA_XSP16, literal(-6)))
        CFI V1 load(1, XDATA, add(CFA_XSP16, literal(-7)))
        CFI V0 load(1, XDATA, add(CFA_XSP16, literal(-8)))
        CFI VB load(1, XDATA, add(CFA_XSP16, literal(-9)))
        CFI R6 load(1, XDATA, add(CFA_XSP16, literal(-10)))
        CFI CFA_SP SP+0
        CFI CFA_XSP16 add(XSP16, 10)
        ; Saved register size: 10
        ; Auto size: 0
        MOV     A,R1
        MOV     R6,A
        MOV     A,#0xa
        LCALL   ?XSTACK_DISP0_8
        MOVX    A,@DPTR
        MOV     R1,A
//  404   if (afStatus_SUCCESS != AF_DataRequest(txaddr, //发送地址
//  405                                            (endPointDesc_t *)&SerialApp_epDesc, //endpoint描述
//  406                                             cID, //clusterID
//  407                                             len, p, //发送数据包的长度和地址
//  408                                             &SerialApp_MsgID, 0, AF_DEFAULT_RADIUS))
        ; Setup parameters for call to function AF_DataRequest
        MOV     ?V0 + 0,#0x1e
        MOV     R0,#?V0 + 0
        LCALL   ?PUSH_XSTACK_I_ONE
        CFI CFA_XSP16 add(XSP16, 11)
        MOV     ?V0 + 0,#SerialApp_MsgID & 0xff
        MOV     ?V0 + 1,#(SerialApp_MsgID >> 8) & 0xff
        MOV     R0,#?V0 + 0
        LCALL   ?PUSH_XSTACK_I_TWO
        CFI CFA_XSP16 add(XSP16, 13)
        MOV     ?V0 + 0,R4
        MOV     ?V0 + 1,R5
        MOV     R0,#?V0 + 0
        LCALL   ?PUSH_XSTACK_I_TWO
        CFI CFA_XSP16 add(XSP16, 15)
        MOV     ?V0 + 0,R1
        MOV     ?V0 + 1,#0x0
        MOV     R0,#?V0 + 0
        LCALL   ?PUSH_XSTACK_I_TWO
        CFI CFA_XSP16 add(XSP16, 17)
        MOV     ?V0 + 0,R6
        MOV     R0,#?V0 + 0
        LCALL   ?PUSH_XSTACK_I_TWO
        CFI CFA_XSP16 add(XSP16, 19)
        MOV     R1,#0x0
        MOV     R4,#SerialApp_epDesc & 0xff
        MOV     R5,#(SerialApp_epDesc >> 8) & 0xff
        LCALL   ??AF_DataRequest?relay
        MOV     A,#0x9
        LCALL   ?DEALLOC_XSTACK8
        CFI CFA_XSP16 add(XSP16, 10)
        MOV     A,R1
        JNZ     ??SerialApp_OTAData_0
//  409   {
//  410   }
//  411   else
//  412   {
//  413     HalLedBlink(HAL_LED_1,1,50,200);
        ; Setup parameters for call to function HalLedBlink
        MOV     R4,#-0x38
        MOV     R5,#0x0
        MOV     R3,#0x32
        MOV     R2,#0x1
        MOV     R1,#0x1
        LCALL   ??HalLedBlink?relay
//  414   }
//  415 }
??SerialApp_OTAData_0:
        MOV     R7,#0x2
        LJMP    ?BANKED_LEAVE_XDATA
        CFI EndBlock cfiBlock24
//  416 
//  417 
//  418 
//  419 /*****************************************************************************************
//  420 *函数名称 ：累加校验和函数				                                 
//  421 *入口参数 ：*data - 数据包地址
//  422             len   - 数据包长度
//  423 *返 回 值 ：sum   - 累加和                                                                                
//  424 *说    明 ：对数据包进行累加和校验                                                             
//  425 *****************************************************************************************/
//  426 

        RSEG BANKED_CODE:CODE:NOROOT(0)
//  427 static uint8 CheckSum(uint8 *data,uint8 len)
CheckSum:
        CFI Block cfiBlock25 Using cfiCommon0
        CFI Function CheckSum
        CODE
//  428 {
        MOV     A,#-0xc
        LCALL   ?BANKED_ENTER_XDATA
        CFI DPH0 load(1, XDATA, add(CFA_XSP16, literal(-1)))
        CFI DPL0 load(1, XDATA, add(CFA_XSP16, literal(-2)))
        CFI ?BRET_EXT load(1, XDATA, add(CFA_XSP16, literal(-3)))
        CFI ?RET_HIGH load(1, XDATA, add(CFA_XSP16, literal(-4)))
        CFI ?RET_LOW load(1, XDATA, add(CFA_XSP16, literal(-5)))
        CFI R7 load(1, XDATA, add(CFA_XSP16, literal(-6)))
        CFI V3 load(1, XDATA, add(CFA_XSP16, literal(-7)))
        CFI V2 load(1, XDATA, add(CFA_XSP16, literal(-8)))
        CFI V1 load(1, XDATA, add(CFA_XSP16, literal(-9)))
        CFI V0 load(1, XDATA, add(CFA_XSP16, literal(-10)))
        CFI VB load(1, XDATA, add(CFA_XSP16, literal(-11)))
        CFI R6 load(1, XDATA, add(CFA_XSP16, literal(-12)))
        CFI CFA_SP SP+0
        CFI CFA_XSP16 add(XSP16, 12)
        ; Saved register size: 12
        ; Auto size: 0
        MOV     A,R1
        MOV     R6,A
//  429   uint8 i,sum=0;
        MOV     R1,#0x0
//  430   for(i=0;i<(len-1);i++)
        MOV     R0,#0x0
        SJMP    ??CheckSum_0
//  431   {
//  432     sum+=data[i];
??CheckSum_1:
        MOV     A,R2
        ADD     A,?V0 + 0
        MOV     DPL,A
        MOV     A,R3
        ADDC    A,#0x0
        MOV     DPH,A
        MOVX    A,@DPTR
        ADD     A,R1
        MOV     R1,A
//  433   }
        INC     R0
??CheckSum_0:
        MOV     ?V0 + 0,R0
        MOV     A,R6
        ADD     A,#-0x1
        MOV     R4,A
        CLR     A
        ADDC    A,#-0x1
        MOV     R5,A
        CLR     C
        MOV     A,?V0 + 0
        SUBB    A,R4
        CLR     A
        SUBB    A,R5
        MOV     C,0xD0 /* PSW */.2
        XRL     A,PSW
        RLC     A
        JC      ??CheckSum_1
//  434   return sum;
        LJMP    ?Subroutine1 & 0xFFFF
        CFI EndBlock cfiBlock25
//  435 }
//  436 /***********************************************/
//  437 
//  438 /*****************************************************************************************
//  439 *函数名称 ：定时器3中断函数				                                 
//  440 *入口参数 ：无                                
//  441 *返 回 值 ：无                                                                               
//  442 *说    明 ：产生PWM所需的中断                                                            
//  443 *****************************************************************************************/
//  444  
//  445 #pragma vector = T3_VECTOR //定时器T3

        RSEG NEAR_CODE:CODE:NOROOT(0)
//  446  __interrupt void T3_ISR(void) 
T3_ISR:
        CFI Block cfiBlock26 Using cfiCommon1
        CFI Function T3_ISR
        CODE
//  447  { 
        PUSH    A
        CFI A Frame(CFA_SP, 3)
        CFI CFA_SP SP+-3
        PUSH    PSW
        CFI PSW Frame(CFA_SP, 4)
        CFI CFA_SP SP+-4
        MOV     A,R0
        CFI R0 A
        PUSH    A
        CFI R0 Frame(CFA_SP, 5)
        CFI CFA_SP SP+-5
        PUSH    DPL
        CFI DPL0 Frame(CFA_SP, 6)
        CFI CFA_SP SP+-6
        PUSH    DPH
        CFI DPH0 Frame(CFA_SP, 7)
        CFI CFA_SP SP+-7
        ; Saved register size: 5
        ; Auto size: 0
//  448    IRCON = 0x00;                  //清中断标志, 也可由硬件自动完成 
        MOV     0xc0,#0x0
//  449 
//  450         
//  451         if(counter<10)
        MOV     DPTR,#counter
        MOVX    A,@DPTR
        CLR     C
        SUBB    A,#0xa
        JNC     ??T3_ISR_0
//  452         { 
//  453             counter++;
        MOVX    A,@DPTR
        INC     A
        MOVX    @DPTR,A
//  454         }
//  455         else
//  456         {
//  457             counter = 0;  //计数清零
//  458         }
//  459         if((counter > 0)&&(counter < DutyRatio))
        JZ      ??T3_ISR_1
        LCALL   ?Subroutine7
??CrossCallReturnLabel_10:
        JNC     ??T3_ISR_1
//  460         {
//  461             PWM_OUT1();
        ORL     0xfd,#0x8
        SETB    0x80.3
        SJMP    ??T3_ISR_2
//  462         }
??T3_ISR_0:
        CLR     A
        MOVX    @DPTR,A
//  463         else if (counter>=DutyRatio)
??T3_ISR_1:
        LCALL   ?Subroutine7
??CrossCallReturnLabel_11:
        JC      ??T3_ISR_2
//  464         {
//  465             PWM_OUT0();
        ORL     0xfd,#0x8
        CLR     0x80.3
//  466         }
//  467         
//  468  }
??T3_ISR_2:
        POP     DPH
        CFI DPH0 SameValue
        CFI CFA_SP SP+-6
        POP     DPL
        CFI DPL0 SameValue
        CFI CFA_SP SP+-5
        POP     A
        CFI R0 A
        CFI CFA_SP SP+-4
        MOV     R0,A
        CFI R0 SameValue
        POP     PSW
        CFI PSW SameValue
        CFI CFA_SP SP+-3
        POP     A
        CFI A SameValue
        CFI CFA_SP SP+-2
        RETI
        CFI EndBlock cfiBlock26
        REQUIRE _A_IRCON
        REQUIRE P0DIR
        REQUIRE _A_P0

        RSEG NEAR_CODE:CODE:NOROOT(0)
?Subroutine7:
        CFI Block cfiCond27 Using cfiCommon1
        CFI NoFunction
        CFI Conditional ??CrossCallReturnLabel_10
        CFI A Frame(CFA_SP, 3)
        CFI PSW Frame(CFA_SP, 4)
        CFI R0 Frame(CFA_SP, 5)
        CFI DPL0 Frame(CFA_SP, 6)
        CFI DPH0 Frame(CFA_SP, 7)
        CFI CFA_SP SP+-7
        CFI Block cfiCond28 Using cfiCommon1
        CFI (cfiCond28) NoFunction
        CFI (cfiCond28) Conditional ??CrossCallReturnLabel_11
        CFI (cfiCond28) A Frame(CFA_SP, 3)
        CFI (cfiCond28) PSW Frame(CFA_SP, 4)
        CFI (cfiCond28) R0 Frame(CFA_SP, 5)
        CFI (cfiCond28) DPL0 Frame(CFA_SP, 6)
        CFI (cfiCond28) DPH0 Frame(CFA_SP, 7)
        CFI (cfiCond28) CFA_SP SP+-7
        CFI Block cfiPicker29 Using cfiCommon1
        CFI (cfiPicker29) NoFunction
        CFI (cfiPicker29) Picker
        MOV     DPTR,#DutyRatio
        MOVX    A,@DPTR
        MOV     R0,A
        MOV     DPTR,#counter
        MOVX    A,@DPTR
        CLR     C
        SUBB    A,R0
        RET
        CFI EndBlock cfiCond27
        CFI EndBlock cfiCond28
        CFI EndBlock cfiPicker29

        COMMON INTVEC:CODE:ROOT(0)
        ORG 91
`??T3_ISR??INTVEC 91`:
        LJMP       (T3_ISR)

        RSEG BANK_RELAYS:CODE:REORDER:NOROOT(0)
??Delayms?relay:
        LCALL   ?BDISPATCH
        DATA
        DC24    Delayms

        RSEG BANK_RELAYS:CODE:REORDER:NOROOT(0)
??InitPWM?relay:
        LCALL   ?BDISPATCH
        DATA
        DC24    InitPWM

        RSEG BANK_RELAYS:CODE:REORDER:NOROOT(0)
??InitT3?relay:
        LCALL   ?BDISPATCH
        DATA
        DC24    InitT3

        RSEG BANK_RELAYS:CODE:REORDER:NOROOT(0)
??SerialApp_Init?relay:
        LCALL   ?BDISPATCH
        DATA
        DC24    SerialApp_Init

        RSEG BANK_RELAYS:CODE:REORDER:NOROOT(0)
??SerialApp_ProcessEvent?relay:
        LCALL   ?BDISPATCH
        DATA
        DC24    SerialApp_ProcessEvent

        RSEG BANK_RELAYS:CODE:REORDER:NOROOT(0)
??SerialApp_ProcessMSGCmd?relay:
        LCALL   ?BDISPATCH
        DATA
        DC24    SerialApp_ProcessMSGCmd

        RSEG BANK_RELAYS:CODE:REORDER:NOROOT(0)
??SerialApp_OTAData?relay:
        LCALL   ?BDISPATCH
        DATA
        DC24    SerialApp_OTAData

        RSEG BANK_RELAYS:CODE:REORDER:NOROOT(0)
??CheckSum?relay:
        LCALL   ?BDISPATCH
        DATA
        DC24    CheckSum

        END
//  469 
//  470 
// 
// 834 bytes in segment BANKED_CODE
//  48 bytes in segment BANK_RELAYS
//   3 bytes in segment INTVEC
//  76 bytes in segment NEAR_CODE
//  10 bytes in segment SFR_AN
//  22 bytes in segment XDATA_ROM_C
//  89 bytes in segment XDATA_Z
// 
// 958 bytes of CODE  memory (+  3 bytes shared)
//  22 bytes of CONST memory
//   0 bytes of DATA  memory (+ 10 bytes shared)
//  89 bytes of XDATA memory
//
//Errors: none
//Warnings: none
